---
triple:          'arm64-apple-darwin'
binary-path:     main.o
relocations:
  - { offset: 0x4BE0, size: 0x8, addend: 0x0, symName: __ZStL8__ioinit, symObjAddr: 0x20C3F, symBinAddr: 0x100020000, symSize: 0x0 }
  - { offset: 0x5020, size: 0x8, addend: 0x0, symName: __GLOBAL__sub_I_Electron.cpp, symObjAddr: 0x1730, symBinAddr: 0x1000032A8, symSize: 0x1C }
  - { offset: 0x5037, size: 0x8, addend: 0x0, symName: __Z41__static_initialization_and_destruction_0ii, symObjAddr: 0x16D0, symBinAddr: 0x100003248, symSize: 0x60 }
  - { offset: 0x5095, size: 0x8, addend: 0x0, symName: __ZN8ElectronD0Ev, symObjAddr: 0x1564, symBinAddr: 0x100003220, symSize: 0x28 }
  - { offset: 0x50BD, size: 0x8, addend: 0x0, symName: __ZN8ElectronD1Ev, symObjAddr: 0x1528, symBinAddr: 0x1000031E4, symSize: 0x3C }
  - { offset: 0x50E1, size: 0x8, addend: 0x0, symName: __ZN9__gnu_cxx13new_allocatorISt10shared_ptrI6PhotonEE9constructIS3_JS3_EEEvPT_DpOT0_, symObjAddr: 0x14DC, symBinAddr: 0x100003198, symSize: 0x4C }
  - { offset: 0x513B, size: 0x8, addend: 0x0, symName: __ZSt7forwardISt10shared_ptrI6PhotonEEOT_RNSt16remove_referenceIS3_E4typeE, symObjAddr: 0x14C8, symBinAddr: 0x100003184, symSize: 0x14 }
  - { offset: 0x516B, size: 0x8, addend: 0x0, symName: __ZNSt16allocator_traitsISaISt10shared_ptrI6PhotonEEE9constructIS2_JS2_EEEvRS3_PT_DpOT0_, symObjAddr: 0x1490, symBinAddr: 0x10000314C, symSize: 0x38 }
  - { offset: 0x51C5, size: 0x8, addend: 0x0, symName: __ZSt19__relocate_object_aISt10shared_ptrI6PhotonES2_SaIS2_EEvPT_PT0_RT1_, symObjAddr: 0x1444, symBinAddr: 0x100003100, symSize: 0x4C }
  - { offset: 0x522C, size: 0x8, addend: 0x0, symName: __ZNK9__gnu_cxx13new_allocatorISt10shared_ptrI6PhotonEE8max_sizeEv, symObjAddr: 0x1428, symBinAddr: 0x1000030E4, symSize: 0x1C }
  - { offset: 0x5250, size: 0x8, addend: 0x0, symName: __ZSt14__relocate_a_1IPSt10shared_ptrI6PhotonES3_SaIS2_EET0_T_S6_S5_RT1_, symObjAddr: 0x13A4, symBinAddr: 0x100003060, symSize: 0x84 }
  - { offset: 0x52D3, size: 0x8, addend: 0x0, symName: __ZSt12__niter_baseIPSt10shared_ptrI6PhotonEET_S4_, symObjAddr: 0x1390, symBinAddr: 0x10000304C, symSize: 0x14 }
  - { offset: 0x530A, size: 0x8, addend: 0x0, symName: __ZSt3minImERKT_S2_S2_, symObjAddr: 0x1358, symBinAddr: 0x100003014, symSize: 0x38 }
  - { offset: 0x5349, size: 0x8, addend: 0x0, symName: __ZNSt16allocator_traitsISaISt10shared_ptrI6PhotonEEE8max_sizeERKS3_, symObjAddr: 0x133C, symBinAddr: 0x100002FF8, symSize: 0x1C }
  - { offset: 0x5371, size: 0x8, addend: 0x0, symName: __ZSt12__relocate_aIPSt10shared_ptrI6PhotonES3_SaIS2_EET0_T_S6_S5_RT1_, symObjAddr: 0x12E0, symBinAddr: 0x100002F9C, symSize: 0x5C }
  - { offset: 0x53E8, size: 0x8, addend: 0x0, symName: __ZN9__gnu_cxx13new_allocatorISt10shared_ptrI6PhotonEE8allocateEmPKv, symObjAddr: 0x1268, symBinAddr: 0x100002F24, symSize: 0x78 }
  - { offset: 0x5437, size: 0x8, addend: 0x0, symName: __ZNK9__gnu_cxx13new_allocatorISt10shared_ptrI6PhotonEE11_M_max_sizeEv, symObjAddr: 0x1254, symBinAddr: 0x100002F10, symSize: 0x14 }
  - { offset: 0x545F, size: 0x8, addend: 0x0, symName: __ZNKSt12_Vector_baseISt10shared_ptrI6PhotonESaIS2_EE19_M_get_Tp_allocatorEv, symObjAddr: 0x1240, symBinAddr: 0x100002EFC, symSize: 0x14 }
  - { offset: 0x5483, size: 0x8, addend: 0x0, symName: __ZNSt6vectorISt10shared_ptrI6PhotonESaIS2_EE11_S_max_sizeERKS3_, symObjAddr: 0x1208, symBinAddr: 0x100002EC4, symSize: 0x38 }
  - { offset: 0x54CB, size: 0x8, addend: 0x0, symName: __ZSt8_DestroyISt10shared_ptrI6PhotonEEvPT_, symObjAddr: 0x11E8, symBinAddr: 0x100002EA4, symSize: 0x20 }
  - { offset: 0x54FB, size: 0x8, addend: 0x0, symName: __ZSt11__addressofISt10shared_ptrI6PhotonEEPT_RS3_, symObjAddr: 0x11D4, symBinAddr: 0x100002E90, symSize: 0x14 }
  - { offset: 0x552B, size: 0x8, addend: 0x0, symName: __ZNSt6vectorISt10shared_ptrI6PhotonESaIS2_EE14_S_do_relocateEPS2_S5_S5_RS3_St17integral_constantIbLb1EE, symObjAddr: 0x119C, symBinAddr: 0x100002E58, symSize: 0x38 }
  - { offset: 0x558B, size: 0x8, addend: 0x0, symName: __ZNSt16allocator_traitsISaISt10shared_ptrI6PhotonEEE8allocateERS3_m, symObjAddr: 0x1174, symBinAddr: 0x100002E30, symSize: 0x28 }
  - { offset: 0x55C3, size: 0x8, addend: 0x0, symName: __ZSt3maxImERKT_S2_S2_, symObjAddr: 0x113C, symBinAddr: 0x100002DF8, symSize: 0x38 }
  - { offset: 0x5606, size: 0x8, addend: 0x0, symName: __ZNKSt6vectorISt10shared_ptrI6PhotonESaIS2_EE8max_sizeEv, symObjAddr: 0x111C, symBinAddr: 0x100002DD8, symSize: 0x20 }
  - { offset: 0x562A, size: 0x8, addend: 0x0, symName: __ZNSt12_Destroy_auxILb0EE9__destroyIPSt10shared_ptrI6PhotonEEEvT_S6_, symObjAddr: 0x10D0, symBinAddr: 0x100002D8C, symSize: 0x4C }
  - { offset: 0x566D, size: 0x8, addend: 0x0, symName: __ZN9__gnu_cxx13new_allocatorISt10shared_ptrI6PhotonEE10deallocateEPS3_m, symObjAddr: 0x10A0, symBinAddr: 0x100002D5C, symSize: 0x30 }
  - { offset: 0x56B3, size: 0x8, addend: 0x0, symName: __ZNSt14__shared_countILN9__gnu_cxx12_Lock_policyE2EE7_M_swapERS2_, symObjAddr: 0x1060, symBinAddr: 0x100002D1C, symSize: 0x40 }
  - { offset: 0x56FB, size: 0x8, addend: 0x0, symName: __ZN9__gnu_cxx13new_allocatorISt10shared_ptrI6PhotonEE7destroyIS3_EEvPT_, symObjAddr: 0x103C, symBinAddr: 0x100002CF8, symSize: 0x24 }
  - { offset: 0x5754, size: 0x8, addend: 0x0, symName: __ZNSt14__shared_countILN9__gnu_cxx12_Lock_policyE2EEC1Ev, symObjAddr: 0x1020, symBinAddr: 0x100002CDC, symSize: 0x1C }
  - { offset: 0x5778, size: 0x8, addend: 0x0, symName: __ZNK9__gnu_cxx17__normal_iteratorIPKSt10shared_ptrI6PhotonESt6vectorIS3_SaIS3_EEE4baseEv, symObjAddr: 0x100C, symBinAddr: 0x100002CC8, symSize: 0x14 }
  - { offset: 0x57C7, size: 0x8, addend: 0x0, symName: __ZN9__gnu_cxx17__normal_iteratorIPKSt10shared_ptrI6PhotonESt6vectorIS3_SaIS3_EEEC1ERKS5_, symObjAddr: 0xFE4, symBinAddr: 0x100002CA0, symSize: 0x28 }
  - { offset: 0x57F3, size: 0x8, addend: 0x0, symName: __ZNK9__gnu_cxx17__normal_iteratorIPSt10shared_ptrI6PhotonESt6vectorIS3_SaIS3_EEE4baseEv, symObjAddr: 0xFD0, symBinAddr: 0x100002C8C, symSize: 0x14 }
  - { offset: 0x5817, size: 0x8, addend: 0x0, symName: __ZNSt6vectorISt10shared_ptrI6PhotonESaIS2_EE11_S_relocateEPS2_S5_S5_RS3_, symObjAddr: 0xF9C, symBinAddr: 0x100002C58, symSize: 0x34 }
  - { offset: 0x5873, size: 0x8, addend: 0x0, symName: __ZNSt12_Vector_baseISt10shared_ptrI6PhotonESaIS2_EE11_M_allocateEm, symObjAddr: 0xF64, symBinAddr: 0x100002C20, symSize: 0x38 }
  - { offset: 0x58AD, size: 0x8, addend: 0x0, symName: __ZN9__gnu_cxxmiIPSt10shared_ptrI6PhotonESt6vectorIS3_SaIS3_EEEENS_17__normal_iteratorIT_T0_E15difference_typeERKSB_SE_, symObjAddr: 0xF24, symBinAddr: 0x100002BE0, symSize: 0x40 }
  - { offset: 0x58FB, size: 0x8, addend: 0x0, symName: __ZNSt6vectorISt10shared_ptrI6PhotonESaIS2_EE5beginEv, symObjAddr: 0xF00, symBinAddr: 0x100002BBC, symSize: 0x24 }
  - { offset: 0x5923, size: 0x8, addend: 0x0, symName: __ZNKSt6vectorISt10shared_ptrI6PhotonESaIS2_EE12_M_check_lenEmPKc, symObjAddr: 0xE34, symBinAddr: 0x100002AF0, symSize: 0xCC }
  - { offset: 0x59A2, size: 0x8, addend: 0x0, symName: __ZN9__gnu_cxx17__normal_iteratorIPSt10shared_ptrI6PhotonESt6vectorIS3_SaIS3_EEEC1ERKS4_, symObjAddr: 0xE0C, symBinAddr: 0x100002AC8, symSize: 0x28 }
  - { offset: 0x59CE, size: 0x8, addend: 0x0, symName: __ZN9__gnu_cxx13new_allocatorISt10shared_ptrI6PhotonEE9constructIS3_JRKS3_EEEvPT_DpOT0_, symObjAddr: 0xDC0, symBinAddr: 0x100002A7C, symSize: 0x4C }
  - { offset: 0x5A28, size: 0x8, addend: 0x0, symName: __ZSt7forwardIRKSt10shared_ptrI6PhotonEEOT_RNSt16remove_referenceIS5_E4typeE, symObjAddr: 0xDAC, symBinAddr: 0x100002A68, symSize: 0x14 }
  - { offset: 0x5A58, size: 0x8, addend: 0x0, symName: __ZSt8_DestroyIPSt10shared_ptrI6PhotonEEvT_S4_, symObjAddr: 0xD84, symBinAddr: 0x100002A40, symSize: 0x28 }
  - { offset: 0x5A97, size: 0x8, addend: 0x0, symName: __ZNSt16allocator_traitsISaISt10shared_ptrI6PhotonEEE10deallocateERS3_PS2_m, symObjAddr: 0xD54, symBinAddr: 0x100002A10, symSize: 0x30 }
  - { offset: 0x5AFC, size: 0x8, addend: 0x0, symName: __ZN9__gnu_cxx13new_allocatorISt10shared_ptrI6PhotonEEC2Ev, symObjAddr: 0xD40, symBinAddr: 0x1000029FC, symSize: 0x14 }
  - { offset: 0x5B47, size: 0x8, addend: 0x0, symName: __ZNSt12__shared_ptrI6PhotonLN9__gnu_cxx12_Lock_policyE2EEC2EOS3_, symObjAddr: 0xCE4, symBinAddr: 0x1000029A0, symSize: 0x5C }
  - { offset: 0x5B75, size: 0x8, addend: 0x0, symName: __ZSt4moveIRSt10shared_ptrI6PhotonEEONSt16remove_referenceIT_E4typeEOS5_, symObjAddr: 0xCD0, symBinAddr: 0x10000298C, symSize: 0x14 }
  - { offset: 0x5BA5, size: 0x8, addend: 0x0, symName: __ZNSt16allocator_traitsISaISt10shared_ptrI6PhotonEEE7destroyIS2_EEvRS3_PT_, symObjAddr: 0xCA8, symBinAddr: 0x100002964, symSize: 0x28 }
  - { offset: 0x5BEA, size: 0x8, addend: 0x0, symName: __ZNSt16_Sp_counted_baseILN9__gnu_cxx12_Lock_policyE2EE15_M_add_ref_copyEv, symObjAddr: 0xC14, symBinAddr: 0x1000028D0, symSize: 0x94 }
  - { offset: 0x5CA9, size: 0x8, addend: 0x0, symName: __ZNK9__gnu_cxx17__normal_iteratorIPSt10shared_ptrI6PhotonESt6vectorIS3_SaIS3_EEEdeEv, symObjAddr: 0xBFC, symBinAddr: 0x1000028B8, symSize: 0x18 }
  - { offset: 0x5CD1, size: 0x8, addend: 0x0, symName: __ZNK9__gnu_cxx17__normal_iteratorIPSt10shared_ptrI6PhotonESt6vectorIS3_SaIS3_EEEmiEl, symObjAddr: 0xBB8, symBinAddr: 0x100002874, symSize: 0x44 }
  - { offset: 0x5D09, size: 0x8, addend: 0x0, symName: __ZNSt16_Sp_counted_baseILN9__gnu_cxx12_Lock_policyE2EE10_M_releaseEv, symObjAddr: 0xA30, symBinAddr: 0x1000026EC, symSize: 0x188 }
  - { offset: 0x5E90, size: 0x8, addend: 0x0, symName: __ZNSt12__shared_ptrI6PhotonLN9__gnu_cxx12_Lock_policyE2EEC2Ev, symObjAddr: 0xA04, symBinAddr: 0x1000026C0, symSize: 0x2C }
  - { offset: 0x5EB6, size: 0x8, addend: 0x0, symName: __ZN9__gnu_cxxeqIPKSt10shared_ptrI6PhotonESt6vectorIS3_SaIS3_EEEEbRKNS_17__normal_iteratorIT_T0_EESE_, symObjAddr: 0x9C0, symBinAddr: 0x10000267C, symSize: 0x44 }
  - { offset: 0x5F04, size: 0x8, addend: 0x0, symName: __ZNKSt6vectorISt10shared_ptrI6PhotonESaIS2_EE3endEv, symObjAddr: 0x998, symBinAddr: 0x100002654, symSize: 0x28 }
  - { offset: 0x5F2C, size: 0x8, addend: 0x0, symName: __ZNKSt6vectorISt10shared_ptrI6PhotonESaIS2_EE5beginEv, symObjAddr: 0x974, symBinAddr: 0x100002630, symSize: 0x24 }
  - { offset: 0x5F54, size: 0x8, addend: 0x0, symName: __ZNSt6vectorISt10shared_ptrI6PhotonESaIS2_EE17_M_realloc_insertIJRKS2_EEEvN9__gnu_cxx17__normal_iteratorIPS2_S4_EEDpOT_, symObjAddr: 0x7FC, symBinAddr: 0x1000024B8, symSize: 0x178 }
  - { offset: 0x6008, size: 0x8, addend: 0x0, symName: __ZNSt6vectorISt10shared_ptrI6PhotonESaIS2_EE3endEv, symObjAddr: 0x7D4, symBinAddr: 0x100002490, symSize: 0x28 }
  - { offset: 0x602C, size: 0x8, addend: 0x0, symName: __ZNSt16allocator_traitsISaISt10shared_ptrI6PhotonEEE9constructIS2_JRKS2_EEEvRS3_PT_DpOT0_, symObjAddr: 0x79C, symBinAddr: 0x100002458, symSize: 0x38 }
  - { offset: 0x6086, size: 0x8, addend: 0x0, symName: __ZSt8_DestroyIPSt10shared_ptrI6PhotonES2_EvT_S4_RSaIT0_E, symObjAddr: 0x770, symBinAddr: 0x10000242C, symSize: 0x2C }
  - { offset: 0x60DC, size: 0x8, addend: 0x0, symName: __ZNSt12_Vector_baseISt10shared_ptrI6PhotonESaIS2_EE19_M_get_Tp_allocatorEv, symObjAddr: 0x75C, symBinAddr: 0x100002418, symSize: 0x14 }
  - { offset: 0x6104, size: 0x8, addend: 0x0, symName: __ZNSt12_Vector_baseISt10shared_ptrI6PhotonESaIS2_EE13_M_deallocateEPS2_m, symObjAddr: 0x720, symBinAddr: 0x1000023DC, symSize: 0x3C }
  - { offset: 0x616E, size: 0x8, addend: 0x0, symName: __ZN9__gnu_cxx13new_allocatorISt10shared_ptrI6PhotonEED2Ev, symObjAddr: 0x70C, symBinAddr: 0x1000023C8, symSize: 0x14 }
  - { offset: 0x61AB, size: 0x8, addend: 0x0, symName: __ZNSt12_Vector_baseISt10shared_ptrI6PhotonESaIS2_EE17_Vector_impl_dataC2Ev, symObjAddr: 0x6E0, symBinAddr: 0x10000239C, symSize: 0x2C }
  - { offset: 0x61E8, size: 0x8, addend: 0x0, symName: __ZNSaISt10shared_ptrI6PhotonEEC2Ev, symObjAddr: 0x6C0, symBinAddr: 0x10000237C, symSize: 0x20 }
  - { offset: 0x620C, size: 0x8, addend: 0x0, symName: __ZNKSt6vectorISt10shared_ptrI6PhotonESaIS2_EE4sizeEv, symObjAddr: 0x698, symBinAddr: 0x100002354, symSize: 0x28 }
  - { offset: 0x625B, size: 0x8, addend: 0x0, symName: __ZNSt10shared_ptrI6PhotonEC1EOS1_, symObjAddr: 0x65C, symBinAddr: 0x100002318, symSize: 0x3C }
  - { offset: 0x6287, size: 0x8, addend: 0x0, symName: __ZNSt6vectorISt10shared_ptrI6PhotonESaIS2_EE8pop_backEv, symObjAddr: 0x618, symBinAddr: 0x1000022D4, symSize: 0x44 }
  - { offset: 0x62D6, size: 0x8, addend: 0x0, symName: __ZNSt14__shared_countILN9__gnu_cxx12_Lock_policyE2EEC1ERKS2_, symObjAddr: 0x5D0, symBinAddr: 0x10000228C, symSize: 0x48 }
  - { offset: 0x6302, size: 0x8, addend: 0x0, symName: __ZNSt6vectorISt10shared_ptrI6PhotonESaIS2_EE4backEv, symObjAddr: 0x598, symBinAddr: 0x100002254, symSize: 0x38 }
  - { offset: 0x634C, size: 0x8, addend: 0x0, symName: __ZNSt14__shared_countILN9__gnu_cxx12_Lock_policyE2EED1Ev, symObjAddr: 0x564, symBinAddr: 0x100002220, symSize: 0x34 }
  - { offset: 0x638E, size: 0x8, addend: 0x0, symName: __ZNSt10shared_ptrI6PhotonEC1EDn, symObjAddr: 0x540, symBinAddr: 0x1000021FC, symSize: 0x24 }
  - { offset: 0x63D3, size: 0x8, addend: 0x0, symName: __ZNSt10shared_ptrI6PhotonEC1Ev, symObjAddr: 0x520, symBinAddr: 0x1000021DC, symSize: 0x20 }
  - { offset: 0x63F7, size: 0x8, addend: 0x0, symName: __ZNKSt6vectorISt10shared_ptrI6PhotonESaIS2_EE5emptyEv, symObjAddr: 0x4E8, symBinAddr: 0x1000021A4, symSize: 0x38 }
  - { offset: 0x641F, size: 0x8, addend: 0x0, symName: __ZNSt6vectorISt10shared_ptrI6PhotonESaIS2_EE9push_backERKS2_, symObjAddr: 0x468, symBinAddr: 0x100002124, symSize: 0x80 }
  - { offset: 0x6479, size: 0x8, addend: 0x0, symName: __ZNSt6vectorISt10shared_ptrI6PhotonESaIS2_EED1Ev, symObjAddr: 0x418, symBinAddr: 0x1000020D4, symSize: 0x50 }
  - { offset: 0x64BF, size: 0x8, addend: 0x0, symName: __ZNSt12_Vector_baseISt10shared_ptrI6PhotonESaIS2_EED2Ev, symObjAddr: 0x3C8, symBinAddr: 0x100002084, symSize: 0x50 }
  - { offset: 0x6505, size: 0x8, addend: 0x0, symName: __ZNSaISt10shared_ptrI6PhotonEED2Ev, symObjAddr: 0x3A8, symBinAddr: 0x100002064, symSize: 0x20 }
  - { offset: 0x6542, size: 0x8, addend: 0x0, symName: __ZNSt12_Vector_baseISt10shared_ptrI6PhotonESaIS2_EE12_Vector_implC1Ev, symObjAddr: 0x380, symBinAddr: 0x10000203C, symSize: 0x28 }
  - { offset: 0x6566, size: 0x8, addend: 0x0, symName: __ZNK8Electron9printDataEv, symObjAddr: 0x2E0, symBinAddr: 0x100001F9C, symSize: 0xA0 }
  - { offset: 0x658E, size: 0x8, addend: 0x0, symName: __ZN8Electron7radiateEv, symObjAddr: 0x220, symBinAddr: 0x100001EDC, symSize: 0xC0 }
  - { offset: 0x65E4, size: 0x8, addend: 0x0, symName: __ZNSt10shared_ptrI6PhotonEC1ERKS1_, symObjAddr: 0x1F8, symBinAddr: 0x100001EB4, symSize: 0x28 }
  - { offset: 0x662E, size: 0x8, addend: 0x0, symName: __ZNSt12__shared_ptrI6PhotonLN9__gnu_cxx12_Lock_policyE2EEC2ERKS3_, symObjAddr: 0x1B0, symBinAddr: 0x100001E6C, symSize: 0x48 }
  - { offset: 0x667E, size: 0x8, addend: 0x0, symName: __ZNSt10shared_ptrI6PhotonED1Ev, symObjAddr: 0x190, symBinAddr: 0x100001E4C, symSize: 0x20 }
  - { offset: 0x66C4, size: 0x8, addend: 0x0, symName: __ZNSt12__shared_ptrI6PhotonLN9__gnu_cxx12_Lock_policyE2EED2Ev, symObjAddr: 0x16C, symBinAddr: 0x100001E28, symSize: 0x24 }
  - { offset: 0x66E8, size: 0x8, addend: 0x0, symName: __ZN8Electron9addPhotonESt10shared_ptrI6PhotonE, symObjAddr: 0x140, symBinAddr: 0x100001DFC, symSize: 0x2C }
  - { offset: 0x6746, size: 0x8, addend: 0x0, symName: __ZN8ElectronC1Ed, symObjAddr: 0xF4, symBinAddr: 0x100001DB0, symSize: 0x4C }
  - { offset: 0x6776, size: 0x8, addend: 0x0, symName: __ZN8ElectronC2Ed, symObjAddr: 0xA8, symBinAddr: 0x100001D64, symSize: 0x4C }
  - { offset: 0x67BB, size: 0x8, addend: 0x0, symName: __ZNSt6vectorISt10shared_ptrI6PhotonESaIS2_EEC1Ev, symObjAddr: 0x88, symBinAddr: 0x100001D44, symSize: 0x20 }
  - { offset: 0x67F8, size: 0x8, addend: 0x0, symName: __ZNSt12_Vector_baseISt10shared_ptrI6PhotonESaIS2_EEC2Ev, symObjAddr: 0x68, symBinAddr: 0x100001D24, symSize: 0x20 }
  - { offset: 0x6840, size: 0x8, addend: 0x0, symName: __ZNSt12_Vector_baseISt10shared_ptrI6PhotonESaIS2_EE12_Vector_implD1Ev, symObjAddr: 0x48, symBinAddr: 0x100001D04, symSize: 0x20 }
  - { offset: 0x6886, size: 0x8, addend: 0x0, symName: __ZN8ParticleD2Ev, symObjAddr: 0x20, symBinAddr: 0x100001CDC, symSize: 0x28 }
  - { offset: 0x699B, size: 0x8, addend: 0x0, symName: __ZL18__gthread_active_pv, symObjAddr: 0x18, symBinAddr: 0x100001CD4, symSize: 0x8 }
  - { offset: 0x69BE, size: 0x8, addend: 0x0, symName: __ZnwmPv, symObjAddr: 0x0, symBinAddr: 0x100001CBC, symSize: 0x18 }
  - { offset: 0xB0D2, size: 0x8, addend: 0x0, symName: __ZStL8__ioinit, symObjAddr: 0x3614F, symBinAddr: 0x100020001, symSize: 0x0 }
  - { offset: 0xB44D, size: 0x8, addend: 0x0, symName: __GLOBAL__sub_I_Interactions.cpp, symObjAddr: 0x1DE8, symBinAddr: 0x100004ADC, symSize: 0x1C }
  - { offset: 0xB468, size: 0x8, addend: 0x0, symName: __ZN9__gnu_cxx13new_allocatorI8ElectronE7destroyIS1_EEvPT_, symObjAddr: 0x1A70, symBinAddr: 0x100004A4C, symSize: 0x30 }
  - { offset: 0xB4A4, size: 0x8, addend: 0x0, symName: __ZNSt14_Sp_ebo_helperILi0ESaI8ElectronELb1EE6_S_getERS2_, symObjAddr: 0x1A5C, symBinAddr: 0x100004A38, symSize: 0x14 }
  - { offset: 0xB4CC, size: 0x8, addend: 0x0, symName: __ZNSt16allocator_traitsISaI8ElectronEE7destroyIS0_EEvRS1_PT_, symObjAddr: 0x1A34, symBinAddr: 0x100004A10, symSize: 0x28 }
  - { offset: 0xB511, size: 0x8, addend: 0x0, symName: __ZNSt23_Sp_counted_ptr_inplaceI8ElectronSaIS0_ELN9__gnu_cxx12_Lock_policyE2EE5_Impl8_M_allocEv, symObjAddr: 0x1A18, symBinAddr: 0x1000049F4, symSize: 0x1C }
  - { offset: 0xB53E, size: 0x8, addend: 0x0, symName: __ZNSt23_Sp_counted_ptr_inplaceI8ElectronSaIS0_ELN9__gnu_cxx12_Lock_policyE2EE14_M_get_deleterERKSt9type_info, symObjAddr: 0x19A8, symBinAddr: 0x100004984, symSize: 0x70 }
  - { offset: 0xB586, size: 0x8, addend: 0x0, symName: __ZNSt23_Sp_counted_ptr_inplaceI8ElectronSaIS0_ELN9__gnu_cxx12_Lock_policyE2EE10_M_destroyEv, symObjAddr: 0x1954, symBinAddr: 0x100004930, symSize: 0x54 }
  - { offset: 0xB5CE, size: 0x8, addend: 0x0, symName: __ZNSt23_Sp_counted_ptr_inplaceI8ElectronSaIS0_ELN9__gnu_cxx12_Lock_policyE2EE10_M_disposeEv, symObjAddr: 0x1910, symBinAddr: 0x1000048EC, symSize: 0x44 }
  - { offset: 0xB618, size: 0x8, addend: 0x0, symName: __ZNSt23_Sp_counted_ptr_inplaceI8ElectronSaIS0_ELN9__gnu_cxx12_Lock_policyE2EED0Ev, symObjAddr: 0x18E8, symBinAddr: 0x1000048C4, symSize: 0x28 }
  - { offset: 0xB640, size: 0x8, addend: 0x0, symName: __ZNSt23_Sp_counted_ptr_inplaceI8ElectronSaIS0_ELN9__gnu_cxx12_Lock_policyE2EED1Ev, symObjAddr: 0x18A8, symBinAddr: 0x100004884, symSize: 0x40 }
  - { offset: 0xB660, size: 0x8, addend: 0x0, symName: __Z41__static_initialization_and_destruction_0ii, symObjAddr: 0x1D88, symBinAddr: 0x100004A7C, symSize: 0x60 }
  - { offset: 0xB69F, size: 0x8, addend: 0x0, symName: __ZN9__gnu_cxx16__aligned_bufferI8ElectronE7_M_addrEv, symObjAddr: 0x1894, symBinAddr: 0x100004870, symSize: 0x14 }
  - { offset: 0xB6CD, size: 0x8, addend: 0x0, symName: __ZN9__gnu_cxx13new_allocatorI8ElectronE9constructIS1_JRdEEEvPT_DpOT0_, symObjAddr: 0x1818, symBinAddr: 0x1000047F4, symSize: 0x7C }
  - { offset: 0xB74C, size: 0x8, addend: 0x0, symName: __ZNSt14_Sp_ebo_helperILi0ESaI8ElectronELb1EEC2ERKS1_, symObjAddr: 0x17F0, symBinAddr: 0x1000047CC, symSize: 0x28 }
  - { offset: 0xB778, size: 0x8, addend: 0x0, symName: __ZN9__gnu_cxx13new_allocatorISt23_Sp_counted_ptr_inplaceI8ElectronSaIS2_ELNS_12_Lock_policyE2EEE10deallocateEPS5_m, symObjAddr: 0x17C0, symBinAddr: 0x10000479C, symSize: 0x30 }
  - { offset: 0xB7BA, size: 0x8, addend: 0x0, symName: __ZSt11__addressofISaISt23_Sp_counted_ptr_inplaceI8ElectronSaIS1_ELN9__gnu_cxx12_Lock_policyE2EEEEPT_RS7_, symObjAddr: 0x17AC, symBinAddr: 0x100004788, symSize: 0x14 }
  - { offset: 0xB7EE, size: 0x8, addend: 0x0, symName: __ZN9__gnu_cxx13new_allocatorISt23_Sp_counted_ptr_inplaceI8ElectronSaIS2_ELNS_12_Lock_policyE2EEE8allocateEmPKv, symObjAddr: 0x1734, symBinAddr: 0x100004710, symSize: 0x78 }
  - { offset: 0xB83D, size: 0x8, addend: 0x0, symName: __ZNK9__gnu_cxx13new_allocatorISt23_Sp_counted_ptr_inplaceI8ElectronSaIS2_ELNS_12_Lock_policyE2EEE11_M_max_sizeEv, symObjAddr: 0x1720, symBinAddr: 0x1000046FC, symSize: 0x14 }
  - { offset: 0xB867, size: 0x8, addend: 0x0, symName: __ZSt7forwardIRKSt10shared_ptrI8ElectronEEOT_RNSt16remove_referenceIS5_E4typeE, symObjAddr: 0x170C, symBinAddr: 0x1000046E8, symSize: 0x14 }
  - { offset: 0xB89B, size: 0x8, addend: 0x0, symName: __ZN9__gnu_cxx16__aligned_bufferI8ElectronE6_M_ptrEv, symObjAddr: 0x16F0, symBinAddr: 0x1000046CC, symSize: 0x1C }
  - { offset: 0xB8BF, size: 0x8, addend: 0x0, symName: __ZNSt16allocator_traitsISaI8ElectronEE9constructIS0_JRdEEEvRS1_PT_DpOT0_, symObjAddr: 0x16B8, symBinAddr: 0x100004694, symSize: 0x38 }
  - { offset: 0xB944, size: 0x8, addend: 0x0, symName: __ZNSt23_Sp_counted_ptr_inplaceI8ElectronSaIS0_ELN9__gnu_cxx12_Lock_policyE2EE5_ImplC1ES1_, symObjAddr: 0x1690, symBinAddr: 0x10000466C, symSize: 0x28 }
  - { offset: 0xB98A, size: 0x8, addend: 0x0, symName: __ZNSt16_Sp_counted_baseILN9__gnu_cxx12_Lock_policyE2EEC2Ev, symObjAddr: 0x1650, symBinAddr: 0x10000462C, symSize: 0x40 }
  - { offset: 0xB9CC, size: 0x8, addend: 0x0, symName: __ZN9__gnu_cxx13new_allocatorI8ElectronEC2ERKS2_, symObjAddr: 0x1638, symBinAddr: 0x100004614, symSize: 0x18 }
  - { offset: 0xB9F4, size: 0x8, addend: 0x0, symName: __ZSt12__to_addressISt23_Sp_counted_ptr_inplaceI8ElectronSaIS1_ELN9__gnu_cxx12_Lock_policyE2EEEPT_S7_, symObjAddr: 0x1624, symBinAddr: 0x100004600, symSize: 0x14 }
  - { offset: 0xBA24, size: 0x8, addend: 0x0, symName: __ZNSt16allocator_traitsISaISt23_Sp_counted_ptr_inplaceI8ElectronSaIS1_ELN9__gnu_cxx12_Lock_policyE2EEEE10deallocateERS6_PS5_m, symObjAddr: 0x15F4, symBinAddr: 0x1000045D0, symSize: 0x30 }
  - { offset: 0xBAA3, size: 0x8, addend: 0x0, symName: __ZNSt15__allocated_ptrISaISt23_Sp_counted_ptr_inplaceI8ElectronSaIS1_ELN9__gnu_cxx12_Lock_policyE2EEEEC1ERS6_PS5_, symObjAddr: 0x15B4, symBinAddr: 0x100004590, symSize: 0x40 }
  - { offset: 0xBAD3, size: 0x8, addend: 0x0, symName: __ZNSt16allocator_traitsISaISt23_Sp_counted_ptr_inplaceI8ElectronSaIS1_ELN9__gnu_cxx12_Lock_policyE2EEEE8allocateERS6_m, symObjAddr: 0x158C, symBinAddr: 0x100004568, symSize: 0x28 }
  - { offset: 0xBB31, size: 0x8, addend: 0x0, symName: __ZN9__gnu_cxx13new_allocatorISt23_Sp_counted_ptr_inplaceI8ElectronSaIS2_ELNS_12_Lock_policyE2EEED2Ev, symObjAddr: 0x1578, symBinAddr: 0x100004554, symSize: 0x14 }
  - { offset: 0xBB6E, size: 0x8, addend: 0x0, symName: __ZN9__gnu_cxx13new_allocatorISt23_Sp_counted_ptr_inplaceI8ElectronSaIS2_ELNS_12_Lock_policyE2EEEC2Ev, symObjAddr: 0x1564, symBinAddr: 0x100004540, symSize: 0x14 }
  - { offset: 0xBB8E, size: 0x8, addend: 0x0, symName: __ZSt10_ConstructISt10shared_ptrI8ElectronEJRKS2_EEvPT_DpOT0_, symObjAddr: 0x151C, symBinAddr: 0x1000044F8, symSize: 0x48 }
  - { offset: 0xBBDA, size: 0x8, addend: 0x0, symName: __ZNK9__gnu_cxx13new_allocatorISt10shared_ptrI8ElectronEE8max_sizeEv, symObjAddr: 0x1500, symBinAddr: 0x1000044DC, symSize: 0x1C }
  - { offset: 0xBC02, size: 0x8, addend: 0x0, symName: __ZNSt23_Sp_counted_ptr_inplaceI8ElectronSaIS0_ELN9__gnu_cxx12_Lock_policyE2EE6_M_ptrEv, symObjAddr: 0x14E0, symBinAddr: 0x1000044BC, symSize: 0x20 }
  - { offset: 0xBC2A, size: 0x8, addend: 0x0, symName: __ZNSt15__allocated_ptrISaISt23_Sp_counted_ptr_inplaceI8ElectronSaIS1_ELN9__gnu_cxx12_Lock_policyE2EEEEaSEDn, symObjAddr: 0x14C0, symBinAddr: 0x10000449C, symSize: 0x20 }
  - { offset: 0xBC97, size: 0x8, addend: 0x0, symName: __ZNSt23_Sp_counted_ptr_inplaceI8ElectronSaIS0_ELN9__gnu_cxx12_Lock_policyE2EEC1IJRdEEES1_DpOT_, symObjAddr: 0x140C, symBinAddr: 0x1000043E8, symSize: 0xB4 }
  - { offset: 0xBD03, size: 0x8, addend: 0x0, symName: __ZNSt23_Sp_counted_ptr_inplaceI8ElectronSaIS0_ELN9__gnu_cxx12_Lock_policyE2EE5_ImplD1Ev, symObjAddr: 0x13EC, symBinAddr: 0x1000043C8, symSize: 0x20 }
  - { offset: 0xBD4D, size: 0x8, addend: 0x0, symName: __ZNSt14_Sp_ebo_helperILi0ESaI8ElectronELb1EED2Ev, symObjAddr: 0x13CC, symBinAddr: 0x1000043A8, symSize: 0x20 }
  - { offset: 0xBD97, size: 0x8, addend: 0x0, symName: __ZNSaI8ElectronEC1ERKS0_, symObjAddr: 0x13A4, symBinAddr: 0x100004380, symSize: 0x28 }
  - { offset: 0xBDC7, size: 0x8, addend: 0x0, symName: __ZNSaI8ElectronEC2ERKS0_, symObjAddr: 0x137C, symBinAddr: 0x100004358, symSize: 0x28 }
  - { offset: 0xBDF3, size: 0x8, addend: 0x0, symName: __ZNSt15__allocated_ptrISaISt23_Sp_counted_ptr_inplaceI8ElectronSaIS1_ELN9__gnu_cxx12_Lock_policyE2EEEE3getEv, symObjAddr: 0x135C, symBinAddr: 0x100004338, symSize: 0x20 }
  - { offset: 0xBE3D, size: 0x8, addend: 0x0, symName: __ZNSt15__allocated_ptrISaISt23_Sp_counted_ptr_inplaceI8ElectronSaIS1_ELN9__gnu_cxx12_Lock_policyE2EEEED1Ev, symObjAddr: 0x1314, symBinAddr: 0x1000042F0, symSize: 0x48 }
  - { offset: 0xBE5D, size: 0x8, addend: 0x0, symName: __ZSt18__allocate_guardedISaISt23_Sp_counted_ptr_inplaceI8ElectronSaIS1_ELN9__gnu_cxx12_Lock_policyE2EEEESt15__allocated_ptrIT_ERS8_, symObjAddr: 0x12D4, symBinAddr: 0x1000042B0, symSize: 0x40 }
  - { offset: 0xBEB3, size: 0x8, addend: 0x0, symName: __ZNSaISt23_Sp_counted_ptr_inplaceI8ElectronSaIS0_ELN9__gnu_cxx12_Lock_policyE2EEED1Ev, symObjAddr: 0x12B4, symBinAddr: 0x100004290, symSize: 0x20 }
  - { offset: 0xBEFE, size: 0x8, addend: 0x0, symName: __ZNSaISt23_Sp_counted_ptr_inplaceI8ElectronSaIS0_ELN9__gnu_cxx12_Lock_policyE2EEEC1IS0_EERKSaIT_E, symObjAddr: 0x1290, symBinAddr: 0x10000426C, symSize: 0x24 }
  - { offset: 0xBF2F, size: 0x8, addend: 0x0, symName: __ZSt11__addressofISt10shared_ptrI8ElectronEEPT_RS3_, symObjAddr: 0x127C, symBinAddr: 0x100004258, symSize: 0x14 }
  - { offset: 0xBF5F, size: 0x8, addend: 0x0, symName: __ZNSt20__uninitialized_copyILb0EE13__uninit_copyIPKSt10shared_ptrI8ElectronEPS4_EET0_T_S9_S8_, symObjAddr: 0x1218, symBinAddr: 0x1000041F4, symSize: 0x64 }
  - { offset: 0xBFCA, size: 0x8, addend: 0x0, symName: __ZN9__gnu_cxx13new_allocatorISt10shared_ptrI8ElectronEE8allocateEmPKv, symObjAddr: 0x11A0, symBinAddr: 0x10000417C, symSize: 0x78 }
  - { offset: 0xC019, size: 0x8, addend: 0x0, symName: __ZNK9__gnu_cxx13new_allocatorISt10shared_ptrI8ElectronEE11_M_max_sizeEv, symObjAddr: 0x118C, symBinAddr: 0x100004168, symSize: 0x14 }
  - { offset: 0xC03D, size: 0x8, addend: 0x0, symName: __ZNSt16allocator_traitsISaISt10shared_ptrI8ElectronEEE8max_sizeERKS3_, symObjAddr: 0x1138, symBinAddr: 0x10000414C, symSize: 0x1C }
  - { offset: 0xC087, size: 0x8, addend: 0x0, symName: __ZN9__gnu_cxx13new_allocatorISt10shared_ptrI8ElectronEEC2ERKS4_, symObjAddr: 0x1120, symBinAddr: 0x100004134, symSize: 0x18 }
  - { offset: 0xC0B3, size: 0x8, addend: 0x0, symName: __ZNSt12__shared_ptrI8ElectronLN9__gnu_cxx12_Lock_policyE2EE31_M_enable_shared_from_this_withIS0_S0_EENSt9enable_ifIXntsrNS3_15__has_esft_baseIT0_vEE5valueEvE4typeEPT_, symObjAddr: 0x1108, symBinAddr: 0x10000411C, symSize: 0x18 }
  - { offset: 0xC1A6, size: 0x8, addend: 0x0, symName: __ZNSt14__shared_countILN9__gnu_cxx12_Lock_policyE2EEC1I8ElectronSaIS4_EJRdEEERPT_St20_Sp_alloc_shared_tagIT0_EDpOT1_, symObjAddr: 0xFE8, symBinAddr: 0x100003FFC, symSize: 0x120 }
  - { offset: 0xC255, size: 0x8, addend: 0x0, symName: __ZN9__gnu_cxx13new_allocatorISt10shared_ptrI8ElectronEE10deallocateEPS3_m, symObjAddr: 0xFB8, symBinAddr: 0x100003FCC, symSize: 0x30 }
  - { offset: 0xC297, size: 0x8, addend: 0x0, symName: __ZSt18uninitialized_copyIPKSt10shared_ptrI8ElectronEPS2_ET0_T_S7_S6_, symObjAddr: 0xF84, symBinAddr: 0x100003F98, symSize: 0x34 }
  - { offset: 0xC2FE, size: 0x8, addend: 0x0, symName: __ZNSt16allocator_traitsISaISt10shared_ptrI8ElectronEEE8allocateERS3_m, symObjAddr: 0xF5C, symBinAddr: 0x100003F70, symSize: 0x28 }
  - { offset: 0xC336, size: 0x8, addend: 0x0, symName: __ZNSt6vectorISt10shared_ptrI8ElectronESaIS2_EE11_S_max_sizeERKS3_, symObjAddr: 0xF24, symBinAddr: 0x100003F38, symSize: 0x38 }
  - { offset: 0xC3A8, size: 0x8, addend: 0x0, symName: __ZNSaISt10shared_ptrI8ElectronEEC1ERKS2_, symObjAddr: 0xEFC, symBinAddr: 0x100003F10, symSize: 0x28 }
  - { offset: 0xC3D8, size: 0x8, addend: 0x0, symName: __ZNSaISt10shared_ptrI8ElectronEEC2ERKS2_, symObjAddr: 0xED4, symBinAddr: 0x100003EE8, symSize: 0x28 }
  - { offset: 0xC426, size: 0x8, addend: 0x0, symName: __ZNSt16_Sp_counted_baseILN9__gnu_cxx12_Lock_policyE2EED2Ev, symObjAddr: 0xEAC, symBinAddr: 0x100003EC0, symSize: 0x28 }
  - { offset: 0xC490, size: 0x8, addend: 0x0, symName: __ZNSt12__shared_ptrI8ElectronLN9__gnu_cxx12_Lock_policyE2EEC2ISaIS0_EJRdEEESt20_Sp_alloc_shared_tagIT_EDpOT0_, symObjAddr: 0xE40, symBinAddr: 0x100003E54, symSize: 0x6C }
  - { offset: 0xC4DA, size: 0x8, addend: 0x0, symName: __ZNSt16allocator_traitsISaISt10shared_ptrI8ElectronEEE10deallocateERS3_PS2_m, symObjAddr: 0xE10, symBinAddr: 0x100003E24, symSize: 0x30 }
  - { offset: 0xC522, size: 0x8, addend: 0x0, symName: __ZSt22__uninitialized_copy_aIPKSt10shared_ptrI8ElectronEPS2_S2_ET0_T_S7_S6_RSaIT1_E, symObjAddr: 0xDE0, symBinAddr: 0x100003DF4, symSize: 0x30 }
  - { offset: 0xC591, size: 0x8, addend: 0x0, symName: __ZNSt12_Vector_baseISt10shared_ptrI8ElectronESaIS2_EE11_M_allocateEm, symObjAddr: 0xDA8, symBinAddr: 0x100003DBC, symSize: 0x38 }
  - { offset: 0xC5C5, size: 0x8, addend: 0x0, symName: __ZNSt6vectorISt10shared_ptrI8ElectronESaIS2_EE17_S_check_init_lenEmRKS3_, symObjAddr: 0xD40, symBinAddr: 0x100003D54, symSize: 0x68 }
  - { offset: 0xC5FD, size: 0x8, addend: 0x0, symName: __ZSt10__distanceIPKSt10shared_ptrI8ElectronEENSt15iterator_traitsIT_E15difference_typeES6_S6_St26random_access_iterator_tag, symObjAddr: 0xD18, symBinAddr: 0x100003D2C, symSize: 0x28 }
  - { offset: 0xC64A, size: 0x8, addend: 0x0, symName: __ZSt19__iterator_categoryIPKSt10shared_ptrI8ElectronEENSt15iterator_traitsIT_E17iterator_categoryERKS6_, symObjAddr: 0xD04, symBinAddr: 0x100003D18, symSize: 0x14 }
  - { offset: 0xC677, size: 0x8, addend: 0x0, symName: __ZNKSt16initializer_listISt10shared_ptrI8ElectronEE4sizeEv, symObjAddr: 0xCEC, symBinAddr: 0x100003D00, symSize: 0x18 }
  - { offset: 0xC6C5, size: 0x8, addend: 0x0, symName: __ZNSt12_Vector_baseISt10shared_ptrI8ElectronESaIS2_EE12_Vector_implC1ERKS3_, symObjAddr: 0xCBC, symBinAddr: 0x100003CD0, symSize: 0x30 }
  - { offset: 0xC6F1, size: 0x8, addend: 0x0, symName: __ZNSt16_Sp_counted_baseILN9__gnu_cxx12_Lock_policyE2EE10_M_destroyEv, symObjAddr: 0xC80, symBinAddr: 0x100003C94, symSize: 0x3C }
  - { offset: 0xC75F, size: 0x8, addend: 0x0, symName: __ZNSt10shared_ptrI8ElectronEC1ISaIS0_EJRdEEESt20_Sp_alloc_shared_tagIT_EDpOT0_, symObjAddr: 0xC3C, symBinAddr: 0x100003C50, symSize: 0x44 }
  - { offset: 0xC7CF, size: 0x8, addend: 0x0, symName: __ZN9__gnu_cxx13new_allocatorI8ElectronED2Ev, symObjAddr: 0xC28, symBinAddr: 0x100003C3C, symSize: 0x14 }
  - { offset: 0xC80C, size: 0x8, addend: 0x0, symName: __ZN9__gnu_cxx13new_allocatorI8ElectronEC2Ev, symObjAddr: 0xC14, symBinAddr: 0x100003C28, symSize: 0x14 }
  - { offset: 0xC830, size: 0x8, addend: 0x0, symName: __ZNSt12_Vector_baseISt10shared_ptrI8ElectronESaIS2_EE13_M_deallocateEPS2_m, symObjAddr: 0xBD8, symBinAddr: 0x100003BEC, symSize: 0x3C }
  - { offset: 0xC891, size: 0x8, addend: 0x0, symName: __ZNSt12_Vector_baseISt10shared_ptrI8ElectronESaIS2_EE17_Vector_impl_dataC2Ev, symObjAddr: 0xBAC, symBinAddr: 0x100003BC0, symSize: 0x2C }
  - { offset: 0xC8B5, size: 0x8, addend: 0x0, symName: __ZNSt12_Vector_baseISt10shared_ptrI8ElectronESaIS2_EE19_M_get_Tp_allocatorEv, symObjAddr: 0xB98, symBinAddr: 0x100003BAC, symSize: 0x14 }
  - { offset: 0xC8DD, size: 0x8, addend: 0x0, symName: __ZNSt6vectorISt10shared_ptrI8ElectronESaIS2_EE19_M_range_initializeIPKS2_EEvT_S8_St20forward_iterator_tag, symObjAddr: 0xAE0, symBinAddr: 0x100003AF4, symSize: 0xB8 }
  - { offset: 0xC942, size: 0x8, addend: 0x0, symName: __ZSt8distanceIPKSt10shared_ptrI8ElectronEENSt15iterator_traitsIT_E15difference_typeES6_S6_, symObjAddr: 0xAA4, symBinAddr: 0x100003AB8, symSize: 0x3C }
  - { offset: 0xC985, size: 0x8, addend: 0x0, symName: __ZNKSt16initializer_listISt10shared_ptrI8ElectronEE3endEv, symObjAddr: 0xA6C, symBinAddr: 0x100003A80, symSize: 0x38 }
  - { offset: 0xC9AD, size: 0x8, addend: 0x0, symName: __ZNKSt16initializer_listISt10shared_ptrI8ElectronEE5beginEv, symObjAddr: 0xA54, symBinAddr: 0x100003A68, symSize: 0x18 }
  - { offset: 0xC9FC, size: 0x8, addend: 0x0, symName: __ZNSt12_Vector_baseISt10shared_ptrI8ElectronESaIS2_EEC2ERKS3_, symObjAddr: 0xA2C, symBinAddr: 0x100003A40, symSize: 0x28 }
  - { offset: 0xCA4A, size: 0x8, addend: 0x0, symName: __ZN9__gnu_cxx13new_allocatorISt10shared_ptrI8ElectronEED2Ev, symObjAddr: 0xA18, symBinAddr: 0x100003A2C, symSize: 0x14 }
  - { offset: 0xCA87, size: 0x8, addend: 0x0, symName: __ZN9__gnu_cxx13new_allocatorISt10shared_ptrI8ElectronEEC2Ev, symObjAddr: 0xA04, symBinAddr: 0x100003A18, symSize: 0x14 }
  - { offset: 0xCAA7, size: 0x8, addend: 0x0, symName: __ZSt15allocate_sharedI8ElectronSaIS0_EJRdEESt10shared_ptrIT_ERKT0_DpOT1_, symObjAddr: 0x7A4, symBinAddr: 0x1000039D4, symSize: 0x44 }
  - { offset: 0xCB00, size: 0x8, addend: 0x0, symName: __ZSt7forwardIRdEOT_RNSt16remove_referenceIS1_E4typeE, symObjAddr: 0x790, symBinAddr: 0x1000039C0, symSize: 0x14 }
  - { offset: 0xCB56, size: 0x8, addend: 0x0, symName: __ZNSaI8ElectronED1Ev, symObjAddr: 0x770, symBinAddr: 0x1000039A0, symSize: 0x20 }
  - { offset: 0xCB7E, size: 0x8, addend: 0x0, symName: __ZNSaI8ElectronED2Ev, symObjAddr: 0x750, symBinAddr: 0x100003980, symSize: 0x20 }
  - { offset: 0xCBBB, size: 0x8, addend: 0x0, symName: __ZNSaI8ElectronEC1Ev, symObjAddr: 0x730, symBinAddr: 0x100003960, symSize: 0x20 }
  - { offset: 0xCC01, size: 0x8, addend: 0x0, symName: __ZNSt12_Vector_baseISt10shared_ptrI8ElectronESaIS2_EED2Ev, symObjAddr: 0x6E0, symBinAddr: 0x100003910, symSize: 0x50 }
  - { offset: 0xCC3E, size: 0x8, addend: 0x0, symName: __ZNSt12_Vector_baseISt10shared_ptrI8ElectronESaIS2_EE12_Vector_implC1Ev, symObjAddr: 0x6B8, symBinAddr: 0x1000038E8, symSize: 0x28 }
  - { offset: 0xCC97, size: 0x8, addend: 0x0, symName: __ZNSt6vectorISt10shared_ptrI8ElectronESaIS2_EEC1ESt16initializer_listIS2_ERKS3_, symObjAddr: 0x648, symBinAddr: 0x100003878, symSize: 0x70 }
  - { offset: 0xCCED, size: 0x8, addend: 0x0, symName: __ZNSaISt10shared_ptrI8ElectronEED1Ev, symObjAddr: 0x628, symBinAddr: 0x100003858, symSize: 0x20 }
  - { offset: 0xCD15, size: 0x8, addend: 0x0, symName: __ZNSaISt10shared_ptrI8ElectronEED2Ev, symObjAddr: 0x608, symBinAddr: 0x100003838, symSize: 0x20 }
  - { offset: 0xCD52, size: 0x8, addend: 0x0, symName: __ZNSaISt10shared_ptrI8ElectronEEC1Ev, symObjAddr: 0x5E8, symBinAddr: 0x100003818, symSize: 0x20 }
  - { offset: 0xCD7A, size: 0x8, addend: 0x0, symName: __ZNSaISt10shared_ptrI8ElectronEEC2Ev, symObjAddr: 0x5C8, symBinAddr: 0x1000037F8, symSize: 0x20 }
  - { offset: 0xCD9A, size: 0x8, addend: 0x0, symName: __ZSt11make_sharedI8ElectronJRdEESt10shared_ptrIT_EDpOT0_, symObjAddr: 0x4E4, symBinAddr: 0x100003790, symSize: 0x68 }
  - { offset: 0xCDE0, size: 0x8, addend: 0x0, symName: __Z14pairProductionRK6Photon, symObjAddr: 0x2C0, symBinAddr: 0x10000356C, symSize: 0x224 }
  - { offset: 0xCE75, size: 0x8, addend: 0x0, symName: __ZNSt6vectorISt10shared_ptrI8ElectronESaIS2_EEC1Ev, symObjAddr: 0x2A0, symBinAddr: 0x10000354C, symSize: 0x20 }
  - { offset: 0xCEB2, size: 0x8, addend: 0x0, symName: __ZNSt12_Vector_baseISt10shared_ptrI8ElectronESaIS2_EEC2Ev, symObjAddr: 0x280, symBinAddr: 0x10000352C, symSize: 0x20 }
  - { offset: 0xCEFA, size: 0x8, addend: 0x0, symName: __ZNSt12_Vector_baseISt10shared_ptrI8ElectronESaIS2_EE12_Vector_implD1Ev, symObjAddr: 0x260, symBinAddr: 0x10000350C, symSize: 0x20 }
  - { offset: 0xCF3C, size: 0x8, addend: 0x0, symName: __ZNSt10shared_ptrI8ElectronEC1ERKS1_, symObjAddr: 0x238, symBinAddr: 0x1000034E4, symSize: 0x28 }
  - { offset: 0xCF86, size: 0x8, addend: 0x0, symName: __ZNSt12__shared_ptrI8ElectronLN9__gnu_cxx12_Lock_policyE2EEC2ERKS3_, symObjAddr: 0x1F0, symBinAddr: 0x10000349C, symSize: 0x48 }
  - { offset: 0xCFD6, size: 0x8, addend: 0x0, symName: __ZNSt10shared_ptrI8ElectronED1Ev, symObjAddr: 0x1D0, symBinAddr: 0x10000347C, symSize: 0x20 }
  - { offset: 0xD01C, size: 0x8, addend: 0x0, symName: __ZNSt12__shared_ptrI8ElectronLN9__gnu_cxx12_Lock_policyE2EED2Ev, symObjAddr: 0x1AC, symBinAddr: 0x100003458, symSize: 0x24 }
  - { offset: 0xD044, size: 0x8, addend: 0x0, symName: __Z17comptonScatteringR6Photond, symObjAddr: 0xD0, symBinAddr: 0x10000337C, symSize: 0xDC }
  - { offset: 0xD0BC, size: 0x8, addend: 0x0, symName: __Z19photoelectricEffectRK6Photon, symObjAddr: 0xB8, symBinAddr: 0x100003364, symSize: 0x18 }
  - { offset: 0xD0E3, size: 0x8, addend: 0x0, symName: __ZNSt19_Sp_make_shared_tag5_S_tiEv, symObjAddr: 0xAC, symBinAddr: 0x100003358, symSize: 0xC }
  - { offset: 0xD109, size: 0x8, addend: 0x0, symName: __ZZNSt19_Sp_make_shared_tag5_S_tiEvE5__tag, symObjAddr: 0x1AA8, symBinAddr: 0x100010060, symSize: 0x0 }
  - { offset: 0xD131, size: 0x8, addend: 0x0, symName: __ZL18__gthread_active_pv, symObjAddr: 0xA4, symBinAddr: 0x100003350, symSize: 0x8 }
  - { offset: 0xD14C, size: 0x8, addend: 0x0, symName: __ZNKSt9type_infoeqERKS_, symObjAddr: 0x30, symBinAddr: 0x1000032DC, symSize: 0x74 }
  - { offset: 0xD187, size: 0x8, addend: 0x0, symName: __ZdlPvS_, symObjAddr: 0x18, symBinAddr: 0x1000032C4, symSize: 0x18 }
  - { offset: 0x164F7, size: 0x8, addend: 0x0, symName: __ZStL8__ioinit, symObjAddr: 0x443E1, symBinAddr: 0x100020002, symSize: 0x0 }
  - { offset: 0x16FD7, size: 0x8, addend: 0x0, symName: __GLOBAL__sub_I_Nucleus.cpp, symObjAddr: 0x4678, symBinAddr: 0x100007AD4, symSize: 0x1C }
  - { offset: 0x16FF2, size: 0x8, addend: 0x0, symName: __ZN9__gnu_cxx13new_allocatorI6PhotonE7destroyIS1_EEvPT_, symObjAddr: 0x3F40, symBinAddr: 0x100007A44, symSize: 0x30 }
  - { offset: 0x1702E, size: 0x8, addend: 0x0, symName: __ZNSt14_Sp_ebo_helperILi0ESaI6PhotonELb1EE6_S_getERS2_, symObjAddr: 0x3F2C, symBinAddr: 0x100007A30, symSize: 0x14 }
  - { offset: 0x1705A, size: 0x8, addend: 0x0, symName: __ZN9__gnu_cxx13new_allocatorI8PositronE7destroyIS1_EEvPT_, symObjAddr: 0x3EFC, symBinAddr: 0x100007A00, symSize: 0x30 }
  - { offset: 0x17096, size: 0x8, addend: 0x0, symName: __ZNSt14_Sp_ebo_helperILi0ESaI8PositronELb1EE6_S_getERS2_, symObjAddr: 0x3EE8, symBinAddr: 0x1000079EC, symSize: 0x14 }
  - { offset: 0x170BE, size: 0x8, addend: 0x0, symName: __ZNSt16allocator_traitsISaI6PhotonEE7destroyIS0_EEvRS1_PT_, symObjAddr: 0x3EC0, symBinAddr: 0x1000079C4, symSize: 0x28 }
  - { offset: 0x17103, size: 0x8, addend: 0x0, symName: __ZNSt23_Sp_counted_ptr_inplaceI6PhotonSaIS0_ELN9__gnu_cxx12_Lock_policyE2EE5_Impl8_M_allocEv, symObjAddr: 0x3EA4, symBinAddr: 0x1000079A8, symSize: 0x1C }
  - { offset: 0x17127, size: 0x8, addend: 0x0, symName: __ZNSt16allocator_traitsISaI8PositronEE7destroyIS0_EEvRS1_PT_, symObjAddr: 0x3E7C, symBinAddr: 0x100007980, symSize: 0x28 }
  - { offset: 0x1716C, size: 0x8, addend: 0x0, symName: __ZNSt23_Sp_counted_ptr_inplaceI8PositronSaIS0_ELN9__gnu_cxx12_Lock_policyE2EE5_Impl8_M_allocEv, symObjAddr: 0x3E60, symBinAddr: 0x100007964, symSize: 0x1C }
  - { offset: 0x17199, size: 0x8, addend: 0x0, symName: __ZNSt23_Sp_counted_ptr_inplaceI6PhotonSaIS0_ELN9__gnu_cxx12_Lock_policyE2EE14_M_get_deleterERKSt9type_info, symObjAddr: 0x3DF0, symBinAddr: 0x1000078F4, symSize: 0x70 }
  - { offset: 0x171E1, size: 0x8, addend: 0x0, symName: __ZNSt23_Sp_counted_ptr_inplaceI6PhotonSaIS0_ELN9__gnu_cxx12_Lock_policyE2EE10_M_destroyEv, symObjAddr: 0x3D9C, symBinAddr: 0x1000078A0, symSize: 0x54 }
  - { offset: 0x17229, size: 0x8, addend: 0x0, symName: __ZNSt23_Sp_counted_ptr_inplaceI6PhotonSaIS0_ELN9__gnu_cxx12_Lock_policyE2EE10_M_disposeEv, symObjAddr: 0x3D58, symBinAddr: 0x10000785C, symSize: 0x44 }
  - { offset: 0x17273, size: 0x8, addend: 0x0, symName: __ZNSt23_Sp_counted_ptr_inplaceI6PhotonSaIS0_ELN9__gnu_cxx12_Lock_policyE2EED0Ev, symObjAddr: 0x3D30, symBinAddr: 0x100007834, symSize: 0x28 }
  - { offset: 0x1729B, size: 0x8, addend: 0x0, symName: __ZNSt23_Sp_counted_ptr_inplaceI6PhotonSaIS0_ELN9__gnu_cxx12_Lock_policyE2EED1Ev, symObjAddr: 0x3CF0, symBinAddr: 0x1000077F4, symSize: 0x40 }
  - { offset: 0x172C4, size: 0x8, addend: 0x0, symName: __ZNSt23_Sp_counted_ptr_inplaceI8PositronSaIS0_ELN9__gnu_cxx12_Lock_policyE2EE14_M_get_deleterERKSt9type_info, symObjAddr: 0x3C80, symBinAddr: 0x100007784, symSize: 0x70 }
  - { offset: 0x1730C, size: 0x8, addend: 0x0, symName: __ZNSt23_Sp_counted_ptr_inplaceI8PositronSaIS0_ELN9__gnu_cxx12_Lock_policyE2EE10_M_destroyEv, symObjAddr: 0x3C2C, symBinAddr: 0x100007730, symSize: 0x54 }
  - { offset: 0x17354, size: 0x8, addend: 0x0, symName: __ZNSt23_Sp_counted_ptr_inplaceI8PositronSaIS0_ELN9__gnu_cxx12_Lock_policyE2EE10_M_disposeEv, symObjAddr: 0x3BE8, symBinAddr: 0x1000076EC, symSize: 0x44 }
  - { offset: 0x1739E, size: 0x8, addend: 0x0, symName: __ZNSt23_Sp_counted_ptr_inplaceI8PositronSaIS0_ELN9__gnu_cxx12_Lock_policyE2EED0Ev, symObjAddr: 0x3BC0, symBinAddr: 0x1000076C4, symSize: 0x28 }
  - { offset: 0x173C6, size: 0x8, addend: 0x0, symName: __ZNSt23_Sp_counted_ptr_inplaceI8PositronSaIS0_ELN9__gnu_cxx12_Lock_policyE2EED1Ev, symObjAddr: 0x3B80, symBinAddr: 0x100007684, symSize: 0x40 }
  - { offset: 0x173E6, size: 0x8, addend: 0x0, symName: __Z41__static_initialization_and_destruction_0ii, symObjAddr: 0x4618, symBinAddr: 0x100007A74, symSize: 0x60 }
  - { offset: 0x17444, size: 0x8, addend: 0x0, symName: __ZN8PositronD0Ev, symObjAddr: 0x3B58, symBinAddr: 0x10000765C, symSize: 0x28 }
  - { offset: 0x1746C, size: 0x8, addend: 0x0, symName: __ZN8PositronD1Ev, symObjAddr: 0x3B24, symBinAddr: 0x100007628, symSize: 0x34 }
  - { offset: 0x174B4, size: 0x8, addend: 0x0, symName: __ZN13StableNucleusD0Ev, symObjAddr: 0x3AFC, symBinAddr: 0x100007600, symSize: 0x28 }
  - { offset: 0x174DC, size: 0x8, addend: 0x0, symName: __ZN13StableNucleusD1Ev, symObjAddr: 0x3ACC, symBinAddr: 0x1000075D0, symSize: 0x30 }
  - { offset: 0x17524, size: 0x8, addend: 0x0, symName: __ZN18RadioactiveNucleusD0Ev, symObjAddr: 0x3AA4, symBinAddr: 0x1000075A8, symSize: 0x28 }
  - { offset: 0x1754C, size: 0x8, addend: 0x0, symName: __ZN18RadioactiveNucleusD1Ev, symObjAddr: 0x3A68, symBinAddr: 0x10000756C, symSize: 0x3C }
  - { offset: 0x17576, size: 0x8, addend: 0x0, symName: __ZN9__gnu_cxx13new_allocatorI6PhotonE9constructIS1_JdEEEvPT_DpOT0_, symObjAddr: 0x398C, symBinAddr: 0x1000074F0, symSize: 0x7C }
  - { offset: 0x175D3, size: 0x8, addend: 0x0, symName: __ZN9__gnu_cxx16__aligned_bufferI8PositronE7_M_addrEv, symObjAddr: 0x3978, symBinAddr: 0x1000074DC, symSize: 0x14 }
  - { offset: 0x175FB, size: 0x8, addend: 0x0, symName: __ZN9__gnu_cxx13new_allocatorI8PositronE9constructIS1_JdEEEvPT_DpOT0_, symObjAddr: 0x38FC, symBinAddr: 0x100007460, symSize: 0x7C }
  - { offset: 0x1767A, size: 0x8, addend: 0x0, symName: __ZNSt14_Sp_ebo_helperILi0ESaI8PositronELb1EEC2ERKS1_, symObjAddr: 0x38D4, symBinAddr: 0x100007438, symSize: 0x28 }
  - { offset: 0x176A6, size: 0x8, addend: 0x0, symName: __ZN9__gnu_cxx13new_allocatorISt23_Sp_counted_ptr_inplaceI8PositronSaIS2_ELNS_12_Lock_policyE2EEE10deallocateEPS5_m, symObjAddr: 0x3898, symBinAddr: 0x1000073FC, symSize: 0x3C }
  - { offset: 0x176E8, size: 0x8, addend: 0x0, symName: __ZSt11__addressofISaISt23_Sp_counted_ptr_inplaceI8PositronSaIS1_ELN9__gnu_cxx12_Lock_policyE2EEEEPT_RS7_, symObjAddr: 0x3884, symBinAddr: 0x1000073E8, symSize: 0x14 }
  - { offset: 0x1771C, size: 0x8, addend: 0x0, symName: __ZN9__gnu_cxx13new_allocatorISt23_Sp_counted_ptr_inplaceI8PositronSaIS2_ELNS_12_Lock_policyE2EEE8allocateEmPKv, symObjAddr: 0x37FC, symBinAddr: 0x100007360, symSize: 0x88 }
  - { offset: 0x1776B, size: 0x8, addend: 0x0, symName: __ZNK9__gnu_cxx13new_allocatorISt23_Sp_counted_ptr_inplaceI8PositronSaIS2_ELNS_12_Lock_policyE2EEE11_M_max_sizeEv, symObjAddr: 0x37E4, symBinAddr: 0x100007348, symSize: 0x18 }
  - { offset: 0x17798, size: 0x8, addend: 0x0, symName: __ZN9__gnu_cxx16__aligned_bufferI6PhotonE7_M_addrEv, symObjAddr: 0x3798, symBinAddr: 0x100007334, symSize: 0x14 }
  - { offset: 0x177C0, size: 0x8, addend: 0x0, symName: __ZN9__gnu_cxx13new_allocatorI6PhotonE9constructIS1_JRdEEEvPT_DpOT0_, symObjAddr: 0x371C, symBinAddr: 0x1000072B8, symSize: 0x7C }
  - { offset: 0x1783F, size: 0x8, addend: 0x0, symName: __ZNSt14_Sp_ebo_helperILi0ESaI6PhotonELb1EEC2ERKS1_, symObjAddr: 0x36F4, symBinAddr: 0x100007290, symSize: 0x28 }
  - { offset: 0x1786B, size: 0x8, addend: 0x0, symName: __ZN9__gnu_cxx13new_allocatorISt23_Sp_counted_ptr_inplaceI6PhotonSaIS2_ELNS_12_Lock_policyE2EEE10deallocateEPS5_m, symObjAddr: 0x36C4, symBinAddr: 0x100007260, symSize: 0x30 }
  - { offset: 0x178AD, size: 0x8, addend: 0x0, symName: __ZSt11__addressofISaISt23_Sp_counted_ptr_inplaceI6PhotonSaIS1_ELN9__gnu_cxx12_Lock_policyE2EEEEPT_RS7_, symObjAddr: 0x36B0, symBinAddr: 0x10000724C, symSize: 0x14 }
  - { offset: 0x178E1, size: 0x8, addend: 0x0, symName: __ZN9__gnu_cxx13new_allocatorISt23_Sp_counted_ptr_inplaceI6PhotonSaIS2_ELNS_12_Lock_policyE2EEE8allocateEmPKv, symObjAddr: 0x3638, symBinAddr: 0x1000071D4, symSize: 0x78 }
  - { offset: 0x17930, size: 0x8, addend: 0x0, symName: __ZNK9__gnu_cxx13new_allocatorISt23_Sp_counted_ptr_inplaceI6PhotonSaIS2_ELNS_12_Lock_policyE2EEE11_M_max_sizeEv, symObjAddr: 0x3624, symBinAddr: 0x1000071C0, symSize: 0x14 }
  - { offset: 0x17954, size: 0x8, addend: 0x0, symName: __ZNSt16allocator_traitsISaI6PhotonEE9constructIS0_JdEEEvRS1_PT_DpOT0_, symObjAddr: 0x35EC, symBinAddr: 0x100007188, symSize: 0x38 }
  - { offset: 0x179B2, size: 0x8, addend: 0x0, symName: __ZN9__gnu_cxx16__aligned_bufferI8PositronE6_M_ptrEv, symObjAddr: 0x35D0, symBinAddr: 0x10000716C, symSize: 0x1C }
  - { offset: 0x179D6, size: 0x8, addend: 0x0, symName: __ZNSt16allocator_traitsISaI8PositronEE9constructIS0_JdEEEvRS1_PT_DpOT0_, symObjAddr: 0x3598, symBinAddr: 0x100007134, symSize: 0x38 }
  - { offset: 0x17A5B, size: 0x8, addend: 0x0, symName: __ZNSt23_Sp_counted_ptr_inplaceI8PositronSaIS0_ELN9__gnu_cxx12_Lock_policyE2EE5_ImplC1ES1_, symObjAddr: 0x3570, symBinAddr: 0x10000710C, symSize: 0x28 }
  - { offset: 0x17AA6, size: 0x8, addend: 0x0, symName: __ZN9__gnu_cxx13new_allocatorI8PositronEC2ERKS2_, symObjAddr: 0x3558, symBinAddr: 0x1000070F4, symSize: 0x18 }
  - { offset: 0x17ACE, size: 0x8, addend: 0x0, symName: __ZSt12__to_addressISt23_Sp_counted_ptr_inplaceI8PositronSaIS1_ELN9__gnu_cxx12_Lock_policyE2EEEPT_S7_, symObjAddr: 0x3544, symBinAddr: 0x1000070E0, symSize: 0x14 }
  - { offset: 0x17AFE, size: 0x8, addend: 0x0, symName: __ZNSt16allocator_traitsISaISt23_Sp_counted_ptr_inplaceI8PositronSaIS1_ELN9__gnu_cxx12_Lock_policyE2EEEE10deallocateERS6_PS5_m, symObjAddr: 0x3514, symBinAddr: 0x1000070B0, symSize: 0x30 }
  - { offset: 0x17B7D, size: 0x8, addend: 0x0, symName: __ZNSt15__allocated_ptrISaISt23_Sp_counted_ptr_inplaceI8PositronSaIS1_ELN9__gnu_cxx12_Lock_policyE2EEEEC1ERS6_PS5_, symObjAddr: 0x34D4, symBinAddr: 0x100007070, symSize: 0x40 }
  - { offset: 0x17BAD, size: 0x8, addend: 0x0, symName: __ZNSt16allocator_traitsISaISt23_Sp_counted_ptr_inplaceI8PositronSaIS1_ELN9__gnu_cxx12_Lock_policyE2EEEE8allocateERS6_m, symObjAddr: 0x34AC, symBinAddr: 0x100007048, symSize: 0x28 }
  - { offset: 0x17C0B, size: 0x8, addend: 0x0, symName: __ZN9__gnu_cxx13new_allocatorISt23_Sp_counted_ptr_inplaceI8PositronSaIS2_ELNS_12_Lock_policyE2EEED2Ev, symObjAddr: 0x3498, symBinAddr: 0x100007034, symSize: 0x14 }
  - { offset: 0x17C48, size: 0x8, addend: 0x0, symName: __ZN9__gnu_cxx13new_allocatorISt23_Sp_counted_ptr_inplaceI8PositronSaIS2_ELNS_12_Lock_policyE2EEEC2Ev, symObjAddr: 0x3484, symBinAddr: 0x100007020, symSize: 0x14 }
  - { offset: 0x17C6C, size: 0x8, addend: 0x0, symName: __ZN9__gnu_cxx16__aligned_bufferI6PhotonE6_M_ptrEv, symObjAddr: 0x3400, symBinAddr: 0x100007004, symSize: 0x1C }
  - { offset: 0x17C90, size: 0x8, addend: 0x0, symName: __ZNSt16allocator_traitsISaI6PhotonEE9constructIS0_JRdEEEvRS1_PT_DpOT0_, symObjAddr: 0x33C8, symBinAddr: 0x100006FCC, symSize: 0x38 }
  - { offset: 0x17D15, size: 0x8, addend: 0x0, symName: __ZNSt23_Sp_counted_ptr_inplaceI6PhotonSaIS0_ELN9__gnu_cxx12_Lock_policyE2EE5_ImplC1ES1_, symObjAddr: 0x33A0, symBinAddr: 0x100006FA4, symSize: 0x28 }
  - { offset: 0x17D60, size: 0x8, addend: 0x0, symName: __ZN9__gnu_cxx13new_allocatorI6PhotonEC2ERKS2_, symObjAddr: 0x3348, symBinAddr: 0x100006F8C, symSize: 0x18 }
  - { offset: 0x17D88, size: 0x8, addend: 0x0, symName: __ZSt12__to_addressISt23_Sp_counted_ptr_inplaceI6PhotonSaIS1_ELN9__gnu_cxx12_Lock_policyE2EEEPT_S7_, symObjAddr: 0x3334, symBinAddr: 0x100006F78, symSize: 0x14 }
  - { offset: 0x17DB8, size: 0x8, addend: 0x0, symName: __ZNSt16allocator_traitsISaISt23_Sp_counted_ptr_inplaceI6PhotonSaIS1_ELN9__gnu_cxx12_Lock_policyE2EEEE10deallocateERS6_PS5_m, symObjAddr: 0x3304, symBinAddr: 0x100006F48, symSize: 0x30 }
  - { offset: 0x17E37, size: 0x8, addend: 0x0, symName: __ZNSt15__allocated_ptrISaISt23_Sp_counted_ptr_inplaceI6PhotonSaIS1_ELN9__gnu_cxx12_Lock_policyE2EEEEC1ERS6_PS5_, symObjAddr: 0x32C4, symBinAddr: 0x100006F08, symSize: 0x40 }
  - { offset: 0x17E67, size: 0x8, addend: 0x0, symName: __ZNSt16allocator_traitsISaISt23_Sp_counted_ptr_inplaceI6PhotonSaIS1_ELN9__gnu_cxx12_Lock_policyE2EEEE8allocateERS6_m, symObjAddr: 0x329C, symBinAddr: 0x100006EE0, symSize: 0x28 }
  - { offset: 0x17EC5, size: 0x8, addend: 0x0, symName: __ZN9__gnu_cxx13new_allocatorISt23_Sp_counted_ptr_inplaceI6PhotonSaIS2_ELNS_12_Lock_policyE2EEED2Ev, symObjAddr: 0x3288, symBinAddr: 0x100006ECC, symSize: 0x14 }
  - { offset: 0x17F02, size: 0x8, addend: 0x0, symName: __ZN9__gnu_cxx13new_allocatorISt23_Sp_counted_ptr_inplaceI6PhotonSaIS2_ELNS_12_Lock_policyE2EEEC2Ev, symObjAddr: 0x3274, symBinAddr: 0x100006EB8, symSize: 0x14 }
  - { offset: 0x17F63, size: 0x8, addend: 0x0, symName: __ZNSt23_Sp_counted_ptr_inplaceI6PhotonSaIS0_ELN9__gnu_cxx12_Lock_policyE2EEC1IJdEEES1_DpOT_, symObjAddr: 0x31C0, symBinAddr: 0x100006E04, symSize: 0xB4 }
  - { offset: 0x17FA9, size: 0x8, addend: 0x0, symName: __ZNSt23_Sp_counted_ptr_inplaceI8PositronSaIS0_ELN9__gnu_cxx12_Lock_policyE2EE6_M_ptrEv, symObjAddr: 0x31A0, symBinAddr: 0x100006DE4, symSize: 0x20 }
  - { offset: 0x17FD1, size: 0x8, addend: 0x0, symName: __ZNSt15__allocated_ptrISaISt23_Sp_counted_ptr_inplaceI8PositronSaIS1_ELN9__gnu_cxx12_Lock_policyE2EEEEaSEDn, symObjAddr: 0x3180, symBinAddr: 0x100006DC4, symSize: 0x20 }
  - { offset: 0x1803E, size: 0x8, addend: 0x0, symName: __ZNSt23_Sp_counted_ptr_inplaceI8PositronSaIS0_ELN9__gnu_cxx12_Lock_policyE2EEC1IJdEEES1_DpOT_, symObjAddr: 0x30CC, symBinAddr: 0x100006D10, symSize: 0xB4 }
  - { offset: 0x180AA, size: 0x8, addend: 0x0, symName: __ZNSt23_Sp_counted_ptr_inplaceI8PositronSaIS0_ELN9__gnu_cxx12_Lock_policyE2EE5_ImplD1Ev, symObjAddr: 0x30AC, symBinAddr: 0x100006CF0, symSize: 0x20 }
  - { offset: 0x180F4, size: 0x8, addend: 0x0, symName: __ZNSt14_Sp_ebo_helperILi0ESaI8PositronELb1EED2Ev, symObjAddr: 0x308C, symBinAddr: 0x100006CD0, symSize: 0x20 }
  - { offset: 0x1813E, size: 0x8, addend: 0x0, symName: __ZNSaI8PositronEC1ERKS0_, symObjAddr: 0x3064, symBinAddr: 0x100006CA8, symSize: 0x28 }
  - { offset: 0x1816E, size: 0x8, addend: 0x0, symName: __ZNSaI8PositronEC2ERKS0_, symObjAddr: 0x303C, symBinAddr: 0x100006C80, symSize: 0x28 }
  - { offset: 0x1819A, size: 0x8, addend: 0x0, symName: __ZNSt15__allocated_ptrISaISt23_Sp_counted_ptr_inplaceI8PositronSaIS1_ELN9__gnu_cxx12_Lock_policyE2EEEE3getEv, symObjAddr: 0x301C, symBinAddr: 0x100006C60, symSize: 0x20 }
  - { offset: 0x181E4, size: 0x8, addend: 0x0, symName: __ZNSt15__allocated_ptrISaISt23_Sp_counted_ptr_inplaceI8PositronSaIS1_ELN9__gnu_cxx12_Lock_policyE2EEEED1Ev, symObjAddr: 0x2FD4, symBinAddr: 0x100006C18, symSize: 0x48 }
  - { offset: 0x18204, size: 0x8, addend: 0x0, symName: __ZSt18__allocate_guardedISaISt23_Sp_counted_ptr_inplaceI8PositronSaIS1_ELN9__gnu_cxx12_Lock_policyE2EEEESt15__allocated_ptrIT_ERS8_, symObjAddr: 0x2F94, symBinAddr: 0x100006BD8, symSize: 0x40 }
  - { offset: 0x1825A, size: 0x8, addend: 0x0, symName: __ZNSaISt23_Sp_counted_ptr_inplaceI8PositronSaIS0_ELN9__gnu_cxx12_Lock_policyE2EEED1Ev, symObjAddr: 0x2F74, symBinAddr: 0x100006BB8, symSize: 0x20 }
  - { offset: 0x182A5, size: 0x8, addend: 0x0, symName: __ZNSaISt23_Sp_counted_ptr_inplaceI8PositronSaIS0_ELN9__gnu_cxx12_Lock_policyE2EEEC1IS0_EERKSaIT_E, symObjAddr: 0x2F50, symBinAddr: 0x100006B94, symSize: 0x24 }
  - { offset: 0x182DA, size: 0x8, addend: 0x0, symName: __ZNSt23_Sp_counted_ptr_inplaceI6PhotonSaIS0_ELN9__gnu_cxx12_Lock_policyE2EE6_M_ptrEv, symObjAddr: 0x2E30, symBinAddr: 0x100006B74, symSize: 0x20 }
  - { offset: 0x18302, size: 0x8, addend: 0x0, symName: __ZNSt15__allocated_ptrISaISt23_Sp_counted_ptr_inplaceI6PhotonSaIS1_ELN9__gnu_cxx12_Lock_policyE2EEEEaSEDn, symObjAddr: 0x2E10, symBinAddr: 0x100006B54, symSize: 0x20 }
  - { offset: 0x1836F, size: 0x8, addend: 0x0, symName: __ZNSt23_Sp_counted_ptr_inplaceI6PhotonSaIS0_ELN9__gnu_cxx12_Lock_policyE2EEC1IJRdEEES1_DpOT_, symObjAddr: 0x2D5C, symBinAddr: 0x100006AA0, symSize: 0xB4 }
  - { offset: 0x183DB, size: 0x8, addend: 0x0, symName: __ZNSt23_Sp_counted_ptr_inplaceI6PhotonSaIS0_ELN9__gnu_cxx12_Lock_policyE2EE5_ImplD1Ev, symObjAddr: 0x2D3C, symBinAddr: 0x100006A80, symSize: 0x20 }
  - { offset: 0x18425, size: 0x8, addend: 0x0, symName: __ZNSt14_Sp_ebo_helperILi0ESaI6PhotonELb1EED2Ev, symObjAddr: 0x2D1C, symBinAddr: 0x100006A60, symSize: 0x20 }
  - { offset: 0x1846F, size: 0x8, addend: 0x0, symName: __ZNSaI6PhotonEC1ERKS0_, symObjAddr: 0x2CF4, symBinAddr: 0x100006A38, symSize: 0x28 }
  - { offset: 0x1849F, size: 0x8, addend: 0x0, symName: __ZNSaI6PhotonEC2ERKS0_, symObjAddr: 0x2CCC, symBinAddr: 0x100006A10, symSize: 0x28 }
  - { offset: 0x184CB, size: 0x8, addend: 0x0, symName: __ZNSt15__allocated_ptrISaISt23_Sp_counted_ptr_inplaceI6PhotonSaIS1_ELN9__gnu_cxx12_Lock_policyE2EEEE3getEv, symObjAddr: 0x2CAC, symBinAddr: 0x1000069F0, symSize: 0x20 }
  - { offset: 0x18515, size: 0x8, addend: 0x0, symName: __ZNSt15__allocated_ptrISaISt23_Sp_counted_ptr_inplaceI6PhotonSaIS1_ELN9__gnu_cxx12_Lock_policyE2EEEED1Ev, symObjAddr: 0x2C64, symBinAddr: 0x1000069A8, symSize: 0x48 }
  - { offset: 0x18535, size: 0x8, addend: 0x0, symName: __ZSt18__allocate_guardedISaISt23_Sp_counted_ptr_inplaceI6PhotonSaIS1_ELN9__gnu_cxx12_Lock_policyE2EEEESt15__allocated_ptrIT_ERS8_, symObjAddr: 0x2C24, symBinAddr: 0x100006968, symSize: 0x40 }
  - { offset: 0x1858B, size: 0x8, addend: 0x0, symName: __ZNSaISt23_Sp_counted_ptr_inplaceI6PhotonSaIS0_ELN9__gnu_cxx12_Lock_policyE2EEED1Ev, symObjAddr: 0x2C04, symBinAddr: 0x100006948, symSize: 0x20 }
  - { offset: 0x185D6, size: 0x8, addend: 0x0, symName: __ZNSaISt23_Sp_counted_ptr_inplaceI6PhotonSaIS0_ELN9__gnu_cxx12_Lock_policyE2EEEC1IS0_EERKSaIT_E, symObjAddr: 0x2BE0, symBinAddr: 0x100006924, symSize: 0x24 }
  - { offset: 0x186BC, size: 0x8, addend: 0x0, symName: __ZNSt14__shared_countILN9__gnu_cxx12_Lock_policyE2EEC1I6PhotonSaIS4_EJdEEERPT_St20_Sp_alloc_shared_tagIT0_EDpOT1_, symObjAddr: 0x2AC0, symBinAddr: 0x100006804, symSize: 0x120 }
  - { offset: 0x1876B, size: 0x8, addend: 0x0, symName: __ZNSt12__shared_ptrI8PositronLN9__gnu_cxx12_Lock_policyE2EE31_M_enable_shared_from_this_withIS0_S0_EENSt9enable_ifIXntsrNS3_15__has_esft_baseIT0_vEE5valueEvE4typeEPT_, symObjAddr: 0x2AA8, symBinAddr: 0x1000067EC, symSize: 0x18 }
  - { offset: 0x1885E, size: 0x8, addend: 0x0, symName: __ZNSt14__shared_countILN9__gnu_cxx12_Lock_policyE2EEC1I8PositronSaIS4_EJdEEERPT_St20_Sp_alloc_shared_tagIT0_EDpOT1_, symObjAddr: 0x2988, symBinAddr: 0x1000066CC, symSize: 0x120 }
  - { offset: 0x1890D, size: 0x8, addend: 0x0, symName: __ZNSt12__shared_ptrI6PhotonLN9__gnu_cxx12_Lock_policyE2EE31_M_enable_shared_from_this_withIS0_S0_EENSt9enable_ifIXntsrNS3_15__has_esft_baseIT0_vEE5valueEvE4typeEPT_, symObjAddr: 0x280C, symBinAddr: 0x1000066B4, symSize: 0x18 }
  - { offset: 0x189FA, size: 0x8, addend: 0x0, symName: __ZNSt14__shared_countILN9__gnu_cxx12_Lock_policyE2EEC1I6PhotonSaIS4_EJRdEEERPT_St20_Sp_alloc_shared_tagIT0_EDpOT1_, symObjAddr: 0x26EC, symBinAddr: 0x100006594, symSize: 0x120 }
  - { offset: 0x18AEF, size: 0x8, addend: 0x0, symName: __ZNSt12__shared_ptrI6PhotonLN9__gnu_cxx12_Lock_policyE2EEC2ISaIS0_EJdEEESt20_Sp_alloc_shared_tagIT_EDpOT0_, symObjAddr: 0x2680, symBinAddr: 0x100006528, symSize: 0x6C }
  - { offset: 0x18B83, size: 0x8, addend: 0x0, symName: __ZNSt12__shared_ptrI8PositronLN9__gnu_cxx12_Lock_policyE2EEC2ISaIS0_EJdEEESt20_Sp_alloc_shared_tagIT_EDpOT0_, symObjAddr: 0x2614, symBinAddr: 0x1000064BC, symSize: 0x6C }
  - { offset: 0x18C17, size: 0x8, addend: 0x0, symName: __ZNSt12__shared_ptrI6PhotonLN9__gnu_cxx12_Lock_policyE2EEC2ISaIS0_EJRdEEESt20_Sp_alloc_shared_tagIT_EDpOT0_, symObjAddr: 0x2474, symBinAddr: 0x100006450, symSize: 0x6C }
  - { offset: 0x18C61, size: 0x8, addend: 0x0, symName: __ZNSt12_Destroy_auxILb1EE9__destroyIPdEEvT_S3_, symObjAddr: 0x245C, symBinAddr: 0x100006438, symSize: 0x18 }
  - { offset: 0x18C96, size: 0x8, addend: 0x0, symName: __ZN9__gnu_cxx13new_allocatorIdE10deallocateEPdm, symObjAddr: 0x242C, symBinAddr: 0x100006408, symSize: 0x30 }
  - { offset: 0x18CD8, size: 0x8, addend: 0x0, symName: __ZSt4swapIP6PhotonENSt9enable_ifIXsrSt6__and_IJSt6__not_ISt15__is_tuple_likeIT_EESt21is_move_constructibleIS6_ESt18is_move_assignableIS6_EEE5valueEvE4typeERS6_SG_, symObjAddr: 0x23D8, symBinAddr: 0x1000063B4, symSize: 0x54 }
  - { offset: 0x18D2D, size: 0x8, addend: 0x0, symName: __ZSt4moveIRP6PhotonEONSt16remove_referenceIT_E4typeEOS4_, symObjAddr: 0x23C4, symBinAddr: 0x1000063A0, symSize: 0x14 }
  - { offset: 0x18DA7, size: 0x8, addend: 0x0, symName: __ZNSt10shared_ptrI6PhotonEC1ISaIS0_EJdEEESt20_Sp_alloc_shared_tagIT_EDpOT0_, symObjAddr: 0x2358, symBinAddr: 0x10000635C, symSize: 0x44 }
  - { offset: 0x18DF5, size: 0x8, addend: 0x0, symName: __ZNKSt12__shared_ptrI8PositronLN9__gnu_cxx12_Lock_policyE2EE3getEv, symObjAddr: 0x2340, symBinAddr: 0x100006344, symSize: 0x18 }
  - { offset: 0x18E63, size: 0x8, addend: 0x0, symName: __ZNSt10shared_ptrI8PositronEC1ISaIS0_EJdEEESt20_Sp_alloc_shared_tagIT_EDpOT0_, symObjAddr: 0x22FC, symBinAddr: 0x100006300, symSize: 0x44 }
  - { offset: 0x18ED3, size: 0x8, addend: 0x0, symName: __ZN9__gnu_cxx13new_allocatorI8PositronED2Ev, symObjAddr: 0x22E8, symBinAddr: 0x1000062EC, symSize: 0x14 }
  - { offset: 0x18F10, size: 0x8, addend: 0x0, symName: __ZN9__gnu_cxx13new_allocatorI8PositronEC2Ev, symObjAddr: 0x22D4, symBinAddr: 0x1000062D8, symSize: 0x14 }
  - { offset: 0x18F34, size: 0x8, addend: 0x0, symName: __ZNKSt12__shared_ptrI6PhotonLN9__gnu_cxx12_Lock_policyE2EE3getEv, symObjAddr: 0x200C, symBinAddr: 0x1000062C0, symSize: 0x18 }
  - { offset: 0x18FA2, size: 0x8, addend: 0x0, symName: __ZNSt10shared_ptrI6PhotonEC1ISaIS0_EJRdEEESt20_Sp_alloc_shared_tagIT_EDpOT0_, symObjAddr: 0x1FC8, symBinAddr: 0x10000627C, symSize: 0x44 }
  - { offset: 0x19012, size: 0x8, addend: 0x0, symName: __ZN9__gnu_cxx13new_allocatorI6PhotonED2Ev, symObjAddr: 0x1FB4, symBinAddr: 0x100006268, symSize: 0x14 }
  - { offset: 0x1904F, size: 0x8, addend: 0x0, symName: __ZN9__gnu_cxx13new_allocatorI6PhotonEC2Ev, symObjAddr: 0x1FA0, symBinAddr: 0x100006254, symSize: 0x14 }
  - { offset: 0x1906F, size: 0x8, addend: 0x0, symName: __ZSt8_DestroyIPdEvT_S1_, symObjAddr: 0x1F78, symBinAddr: 0x10000622C, symSize: 0x28 }
  - { offset: 0x190AE, size: 0x8, addend: 0x0, symName: __ZNSt16allocator_traitsISaIdEE10deallocateERS0_Pdm, symObjAddr: 0x1F48, symBinAddr: 0x1000061FC, symSize: 0x30 }
  - { offset: 0x19118, size: 0x8, addend: 0x0, symName: __ZN9__gnu_cxx13new_allocatorIdEC2ERKS1_, symObjAddr: 0x1F30, symBinAddr: 0x1000061E4, symSize: 0x18 }
  - { offset: 0x19144, size: 0x8, addend: 0x0, symName: __ZNSt12__shared_ptrI6PhotonLN9__gnu_cxx12_Lock_policyE2EE4swapERS3_, symObjAddr: 0x1EEC, symBinAddr: 0x1000061A0, symSize: 0x44 }
  - { offset: 0x1917E, size: 0x8, addend: 0x0, symName: __ZSt4moveIRSt12__shared_ptrI6PhotonLN9__gnu_cxx12_Lock_policyE2EEEONSt16remove_referenceIT_E4typeEOS7_, symObjAddr: 0x1ED8, symBinAddr: 0x10000618C, symSize: 0x14 }
  - { offset: 0x191AE, size: 0x8, addend: 0x0, symName: __ZSt15allocate_sharedI6PhotonSaIS0_EJdEESt10shared_ptrIT_ERKT0_DpOT1_, symObjAddr: 0x1DFC, symBinAddr: 0x100006148, symSize: 0x44 }
  - { offset: 0x19205, size: 0x8, addend: 0x0, symName: __ZNKSt19__shared_ptr_accessI8PositronLN9__gnu_cxx12_Lock_policyE2ELb0ELb0EE6_M_getEv, symObjAddr: 0x1DE0, symBinAddr: 0x10000612C, symSize: 0x1C }
  - { offset: 0x19229, size: 0x8, addend: 0x0, symName: __ZSt15allocate_sharedI8PositronSaIS0_EJdEESt10shared_ptrIT_ERKT0_DpOT1_, symObjAddr: 0x1D9C, symBinAddr: 0x1000060E8, symSize: 0x44 }
  - { offset: 0x19282, size: 0x8, addend: 0x0, symName: __ZSt7forwardIdEOT_RNSt16remove_referenceIS0_E4typeE, symObjAddr: 0x1D88, symBinAddr: 0x1000060D4, symSize: 0x14 }
  - { offset: 0x192D8, size: 0x8, addend: 0x0, symName: __ZNSaI8PositronED1Ev, symObjAddr: 0x1D68, symBinAddr: 0x1000060B4, symSize: 0x20 }
  - { offset: 0x19300, size: 0x8, addend: 0x0, symName: __ZNSaI8PositronED2Ev, symObjAddr: 0x1D48, symBinAddr: 0x100006094, symSize: 0x20 }
  - { offset: 0x1933D, size: 0x8, addend: 0x0, symName: __ZNSaI8PositronEC1Ev, symObjAddr: 0x1D28, symBinAddr: 0x100006074, symSize: 0x20 }
  - { offset: 0x19361, size: 0x8, addend: 0x0, symName: __ZNKSt19__shared_ptr_accessI6PhotonLN9__gnu_cxx12_Lock_policyE2ELb0ELb0EE6_M_getEv, symObjAddr: 0x1B34, symBinAddr: 0x100006058, symSize: 0x1C }
  - { offset: 0x19385, size: 0x8, addend: 0x0, symName: __ZSt15allocate_sharedI6PhotonSaIS0_EJRdEESt10shared_ptrIT_ERKT0_DpOT1_, symObjAddr: 0x1AF0, symBinAddr: 0x100006014, symSize: 0x44 }
  - { offset: 0x193FE, size: 0x8, addend: 0x0, symName: __ZNSaI6PhotonED1Ev, symObjAddr: 0x1ABC, symBinAddr: 0x100005FF4, symSize: 0x20 }
  - { offset: 0x19426, size: 0x8, addend: 0x0, symName: __ZNSaI6PhotonED2Ev, symObjAddr: 0x1A9C, symBinAddr: 0x100005FD4, symSize: 0x20 }
  - { offset: 0x19463, size: 0x8, addend: 0x0, symName: __ZNSaI6PhotonEC1Ev, symObjAddr: 0x1A7C, symBinAddr: 0x100005FB4, symSize: 0x20 }
  - { offset: 0x19487, size: 0x8, addend: 0x0, symName: __ZNK9__gnu_cxx17__normal_iteratorIPdSt6vectorIdSaIdEEE4baseEv, symObjAddr: 0x1A68, symBinAddr: 0x100005FA0, symSize: 0x14 }
  - { offset: 0x194D6, size: 0x8, addend: 0x0, symName: __ZN9__gnu_cxx17__normal_iteratorIPdSt6vectorIdSaIdEEEC1ERKS1_, symObjAddr: 0x1A40, symBinAddr: 0x100005F78, symSize: 0x28 }
  - { offset: 0x194FE, size: 0x8, addend: 0x0, symName: __ZSt8_DestroyIPddEvT_S1_RSaIT0_E, symObjAddr: 0x1A14, symBinAddr: 0x100005F4C, symSize: 0x2C }
  - { offset: 0x19554, size: 0x8, addend: 0x0, symName: __ZNSt12_Vector_baseIdSaIdEE19_M_get_Tp_allocatorEv, symObjAddr: 0x1A00, symBinAddr: 0x100005F38, symSize: 0x14 }
  - { offset: 0x1957C, size: 0x8, addend: 0x0, symName: __ZNSt12_Vector_baseIdSaIdEE13_M_deallocateEPdm, symObjAddr: 0x19C4, symBinAddr: 0x100005EFC, symSize: 0x3C }
  - { offset: 0x195E6, size: 0x8, addend: 0x0, symName: __ZN9__gnu_cxx13new_allocatorIdED2Ev, symObjAddr: 0x19B0, symBinAddr: 0x100005EE8, symSize: 0x14 }
  - { offset: 0x19630, size: 0x8, addend: 0x0, symName: __ZNSt12_Vector_baseIdSaIdEE17_Vector_impl_dataC2EOS2_, symObjAddr: 0x1940, symBinAddr: 0x100005E78, symSize: 0x70 }
  - { offset: 0x19682, size: 0x8, addend: 0x0, symName: __ZNSaIdEC2ERKS_, symObjAddr: 0x1918, symBinAddr: 0x100005E50, symSize: 0x28 }
  - { offset: 0x196B6, size: 0x8, addend: 0x0, symName: __ZSt4moveIRNSt12_Vector_baseIdSaIdEE12_Vector_implEEONSt16remove_referenceIT_E4typeEOS6_, symObjAddr: 0x1904, symBinAddr: 0x100005E3C, symSize: 0x14 }
  - { offset: 0x196EA, size: 0x8, addend: 0x0, symName: __ZNSt12__shared_ptrI6PhotonLN9__gnu_cxx12_Lock_policyE2EEaSEOS3_, symObjAddr: 0x18C0, symBinAddr: 0x100005DF8, symSize: 0x44 }
  - { offset: 0x19749, size: 0x8, addend: 0x0, symName: __ZNSt12__shared_ptrI6PhotonLN9__gnu_cxx12_Lock_policyE2EEC1EOS3_, symObjAddr: 0x1864, symBinAddr: 0x100005D9C, symSize: 0x5C }
  - { offset: 0x19771, size: 0x8, addend: 0x0, symName: __ZSt11make_sharedI6PhotonJdEESt10shared_ptrIT_EDpOT0_, symObjAddr: 0x1558, symBinAddr: 0x100005D34, symSize: 0x68 }
  - { offset: 0x197AF, size: 0x8, addend: 0x0, symName: __ZNKSt19__shared_ptr_accessI8PositronLN9__gnu_cxx12_Lock_policyE2ELb0ELb0EEptEv, symObjAddr: 0x153C, symBinAddr: 0x100005D18, symSize: 0x1C }
  - { offset: 0x197D3, size: 0x8, addend: 0x0, symName: __ZSt11make_sharedI8PositronJdEESt10shared_ptrIT_EDpOT0_, symObjAddr: 0x14D4, symBinAddr: 0x100005CB0, symSize: 0x68 }
  - { offset: 0x1980D, size: 0x8, addend: 0x0, symName: __ZSteqIcSt11char_traitsIcESaIcEEbRKNSt7__cxx1112basic_stringIT_T0_T1_EEPKS5_, symObjAddr: 0x14A4, symBinAddr: 0x100005C80, symSize: 0x30 }
  - { offset: 0x19864, size: 0x8, addend: 0x0, symName: __ZNKSt19__shared_ptr_accessI6PhotonLN9__gnu_cxx12_Lock_policyE2ELb0ELb0EEptEv, symObjAddr: 0x1408, symBinAddr: 0x100005C64, symSize: 0x1C }
  - { offset: 0x19888, size: 0x8, addend: 0x0, symName: __ZSt11make_sharedI6PhotonJRdEESt10shared_ptrIT_EDpOT0_, symObjAddr: 0x13A0, symBinAddr: 0x100005BFC, symSize: 0x68 }
  - { offset: 0x198C6, size: 0x8, addend: 0x0, symName: __ZNK9__gnu_cxx17__normal_iteratorIPdSt6vectorIdSaIdEEEdeEv, symObjAddr: 0x1388, symBinAddr: 0x100005BE4, symSize: 0x18 }
  - { offset: 0x198EE, size: 0x8, addend: 0x0, symName: __ZN9__gnu_cxx17__normal_iteratorIPdSt6vectorIdSaIdEEEppEv, symObjAddr: 0x1360, symBinAddr: 0x100005BBC, symSize: 0x28 }
  - { offset: 0x19918, size: 0x8, addend: 0x0, symName: __ZN9__gnu_cxxneIPdSt6vectorIdSaIdEEEEbRKNS_17__normal_iteratorIT_T0_EESA_, symObjAddr: 0x131C, symBinAddr: 0x100005B78, symSize: 0x44 }
  - { offset: 0x19966, size: 0x8, addend: 0x0, symName: __ZNSt6vectorIdSaIdEE3endEv, symObjAddr: 0x12F4, symBinAddr: 0x100005B50, symSize: 0x28 }
  - { offset: 0x1998E, size: 0x8, addend: 0x0, symName: __ZNSt6vectorIdSaIdEE5beginEv, symObjAddr: 0x12D0, symBinAddr: 0x100005B2C, symSize: 0x24 }
  - { offset: 0x199D8, size: 0x8, addend: 0x0, symName: __ZNSt6vectorIdSaIdEED1Ev, symObjAddr: 0x1280, symBinAddr: 0x100005ADC, symSize: 0x50 }
  - { offset: 0x19A1E, size: 0x8, addend: 0x0, symName: __ZNSt12_Vector_baseIdSaIdEED2Ev, symObjAddr: 0x1230, symBinAddr: 0x100005A8C, symSize: 0x50 }
  - { offset: 0x19A64, size: 0x8, addend: 0x0, symName: __ZNSaIdED2Ev, symObjAddr: 0x1210, symBinAddr: 0x100005A6C, symSize: 0x20 }
  - { offset: 0x19AAE, size: 0x8, addend: 0x0, symName: __ZNSt12_Vector_baseIdSaIdEE12_Vector_implC1EOS2_, symObjAddr: 0x11C0, symBinAddr: 0x100005A1C, symSize: 0x50 }
  - { offset: 0x19ADC, size: 0x8, addend: 0x0, symName: __ZSt4moveIRSt6vectorIdSaIdEEEONSt16remove_referenceIT_E4typeEOS5_, symObjAddr: 0x11AC, symBinAddr: 0x100005A08, symSize: 0x14 }
  - { offset: 0x19B10, size: 0x8, addend: 0x0, symName: __ZNSt10shared_ptrI6PhotonEaSEOS1_, symObjAddr: 0x1170, symBinAddr: 0x1000059CC, symSize: 0x3C }
  - { offset: 0x19B4A, size: 0x8, addend: 0x0, symName: __ZSt4moveIRNSt7__cxx1112basic_stringIcSt11char_traitsIcESaIcEEEEONSt16remove_referenceIT_E4typeEOS8_, symObjAddr: 0x110C, symBinAddr: 0x1000059B8, symSize: 0x14 }
  - { offset: 0x19B7E, size: 0x8, addend: 0x0, symName: __ZNSt14__shared_countILN9__gnu_cxx12_Lock_policyE2EEaSERKS2_, symObjAddr: 0x1094, symBinAddr: 0x100005940, symSize: 0x78 }
  - { offset: 0x19BC6, size: 0x8, addend: 0x0, symName: __ZN18RadioactiveNucleus5decayERSt6vectorISt10shared_ptrI6PhotonESaIS3_EE, symObjAddr: 0xC2C, symBinAddr: 0x100005598, symSize: 0x3A8 }
  - { offset: 0x19CA8, size: 0x8, addend: 0x0, symName: __ZNSt10shared_ptrI8PositronED1Ev, symObjAddr: 0xC0C, symBinAddr: 0x100005578, symSize: 0x20 }
  - { offset: 0x19CEE, size: 0x8, addend: 0x0, symName: __ZNSt12__shared_ptrI8PositronLN9__gnu_cxx12_Lock_policyE2EED2Ev, symObjAddr: 0xBE8, symBinAddr: 0x100005554, symSize: 0x24 }
  - { offset: 0x19D6C, size: 0x8, addend: 0x0, symName: __ZN18RadioactiveNucleusC1ENSt7__cxx1112basic_stringIcSt11char_traitsIcESaIcEEEiidSt6vectorIdSaIdEE, symObjAddr: 0xB38, symBinAddr: 0x1000054A4, symSize: 0xB0 }
  - { offset: 0x19DBF, size: 0x8, addend: 0x0, symName: __ZN18RadioactiveNucleusC2ENSt7__cxx1112basic_stringIcSt11char_traitsIcESaIcEEEiidSt6vectorIdSaIdEE, symObjAddr: 0xA88, symBinAddr: 0x1000053F4, symSize: 0xB0 }
  - { offset: 0x19E2C, size: 0x8, addend: 0x0, symName: __ZNSt6vectorIdSaIdEEC1EOS1_, symObjAddr: 0xA60, symBinAddr: 0x1000053CC, symSize: 0x28 }
  - { offset: 0x19E76, size: 0x8, addend: 0x0, symName: __ZNSt12_Vector_baseIdSaIdEEC2EOS1_, symObjAddr: 0xA38, symBinAddr: 0x1000053A4, symSize: 0x28 }
  - { offset: 0x19EC6, size: 0x8, addend: 0x0, symName: __ZNSt12_Vector_baseIdSaIdEE12_Vector_implD1Ev, symObjAddr: 0xA18, symBinAddr: 0x100005384, symSize: 0x20 }
  - { offset: 0x19EEA, size: 0x8, addend: 0x0, symName: __ZN13StableNucleus5decayERSt6vectorISt10shared_ptrI6PhotonESaIS3_EE, symObjAddr: 0x9A8, symBinAddr: 0x100005314, symSize: 0x70 }
  - { offset: 0x19F61, size: 0x8, addend: 0x0, symName: __ZN13StableNucleusC1ENSt7__cxx1112basic_stringIcSt11char_traitsIcESaIcEEEii, symObjAddr: 0x928, symBinAddr: 0x100005294, symSize: 0x80 }
  - { offset: 0x19FA2, size: 0x8, addend: 0x0, symName: __ZN13StableNucleusC2ENSt7__cxx1112basic_stringIcSt11char_traitsIcESaIcEEEii, symObjAddr: 0x8A8, symBinAddr: 0x100005214, symSize: 0x80 }
  - { offset: 0x19FDF, size: 0x8, addend: 0x0, symName: __ZNK7Nucleus9printDataEv, symObjAddr: 0x7D0, symBinAddr: 0x10000513C, symSize: 0xD8 }
  - { offset: 0x1A007, size: 0x8, addend: 0x0, symName: __ZN7NucleusaSEOS_, symObjAddr: 0x73C, symBinAddr: 0x1000050A8, symSize: 0x94 }
  - { offset: 0x1A064, size: 0x8, addend: 0x0, symName: __ZN7NucleusC1EOS_, symObjAddr: 0x698, symBinAddr: 0x100005004, symSize: 0xA4 }
  - { offset: 0x1A094, size: 0x8, addend: 0x0, symName: __ZN7NucleusC2EOS_, symObjAddr: 0x5F4, symBinAddr: 0x100004F60, symSize: 0xA4 }
  - { offset: 0x1A0C0, size: 0x8, addend: 0x0, symName: __ZN7NucleusaSERKS_, symObjAddr: 0x570, symBinAddr: 0x100004EDC, symSize: 0x84 }
  - { offset: 0x1A0F7, size: 0x8, addend: 0x0, symName: __ZNSt10shared_ptrI6PhotonEaSERKS1_, symObjAddr: 0x548, symBinAddr: 0x100004EB4, symSize: 0x28 }
  - { offset: 0x1A127, size: 0x8, addend: 0x0, symName: __ZNSt12__shared_ptrI6PhotonLN9__gnu_cxx12_Lock_policyE2EEaSERKS3_, symObjAddr: 0x508, symBinAddr: 0x100004E74, symSize: 0x40 }
  - { offset: 0x1A17D, size: 0x8, addend: 0x0, symName: __ZN7NucleusC1ERKS_, symObjAddr: 0x474, symBinAddr: 0x100004DE0, symSize: 0x94 }
  - { offset: 0x1A1AD, size: 0x8, addend: 0x0, symName: __ZN7NucleusC2ERKS_, symObjAddr: 0x3E0, symBinAddr: 0x100004D4C, symSize: 0x94 }
  - { offset: 0x1A1FB, size: 0x8, addend: 0x0, symName: __ZN7NucleusD0Ev, symObjAddr: 0x348, symBinAddr: 0x100004D24, symSize: 0x28 }
  - { offset: 0x1A223, size: 0x8, addend: 0x0, symName: __ZN7NucleusD1Ev, symObjAddr: 0x308, symBinAddr: 0x100004CE4, symSize: 0x40 }
  - { offset: 0x1A24B, size: 0x8, addend: 0x0, symName: __ZN7NucleusD2Ev, symObjAddr: 0x2C8, symBinAddr: 0x100004CA4, symSize: 0x40 }
  - { offset: 0x1A2AF, size: 0x8, addend: 0x0, symName: __ZN7NucleusC1ENSt7__cxx1112basic_stringIcSt11char_traitsIcESaIcEEEii, symObjAddr: 0x254, symBinAddr: 0x100004C30, symSize: 0x74 }
  - { offset: 0x1A2F0, size: 0x8, addend: 0x0, symName: __ZN7NucleusC2ENSt7__cxx1112basic_stringIcSt11char_traitsIcESaIcEEEii, symObjAddr: 0x1E0, symBinAddr: 0x100004BBC, symSize: 0x74 }
  - { offset: 0x1A34F, size: 0x8, addend: 0x0, symName: __ZNSt12__shared_ptrI6PhotonLN9__gnu_cxx12_Lock_policyE2EED1Ev, symObjAddr: 0x19C, symBinAddr: 0x100004B98, symSize: 0x24 }
  - { offset: 0x1A373, size: 0x8, addend: 0x0, symName: __ZNK8Positron9printDataEv, symObjAddr: 0x124, symBinAddr: 0x100004B44, symSize: 0x54 }
  - { offset: 0x1A3C1, size: 0x8, addend: 0x0, symName: __ZN8PositronC1Ed, symObjAddr: 0xE0, symBinAddr: 0x100004B00, symSize: 0x44 }
  - { offset: 0x1A3F2, size: 0x8, addend: 0x0, symName: __ZL18__gthread_active_pv, symObjAddr: 0x30, symBinAddr: 0x100004AF8, symSize: 0x8 }
  - { offset: 0x1A41F, size: 0x8, addend: 0x0, symName: __ZN8ParticleC2Edd, symObjAddr: 0x0, symBinAddr: 0x100007AF0, symSize: 0x48 }
  - { offset: 0x1A583, size: 0x8, addend: 0x0, symName: __ZN8Particle9setEnergyEd, symObjAddr: 0xC0, symBinAddr: 0x100007BB0, symSize: 0x24 }
  - { offset: 0x1A5BA, size: 0x8, addend: 0x0, symName: __ZNK8Particle9getEnergyEv, symObjAddr: 0xA8, symBinAddr: 0x100007B98, symSize: 0x18 }
  - { offset: 0x1A5E2, size: 0x8, addend: 0x0, symName: __ZNK8Particle11getRestMassEv, symObjAddr: 0x90, symBinAddr: 0x100007B80, symSize: 0x18 }
  - { offset: 0x1A63D, size: 0x8, addend: 0x0, symName: __ZN8ParticleC1Edd, symObjAddr: 0x48, symBinAddr: 0x100007B38, symSize: 0x48 }
  - { offset: 0x1A675, size: 0x8, addend: 0x0, symName: __ZN8ParticleC2Edd, symObjAddr: 0x0, symBinAddr: 0x100007AF0, symSize: 0x48 }
  - { offset: 0x1D7D7, size: 0x8, addend: 0x0, symName: __ZStL8__ioinit, symObjAddr: 0x1F25B, symBinAddr: 0x100020003, symSize: 0x0 }
  - { offset: 0x1DA7A, size: 0x8, addend: 0x0, symName: __GLOBAL__sub_I_Photon.cpp, symObjAddr: 0x1388, symBinAddr: 0x100008680, symSize: 0x1C }
  - { offset: 0x1DA91, size: 0x8, addend: 0x0, symName: __Z41__static_initialization_and_destruction_0ii, symObjAddr: 0x1328, symBinAddr: 0x100008620, symSize: 0x60 }
  - { offset: 0x1DAEF, size: 0x8, addend: 0x0, symName: __ZN6PhotonD0Ev, symObjAddr: 0x121C, symBinAddr: 0x1000085F8, symSize: 0x28 }
  - { offset: 0x1DB17, size: 0x8, addend: 0x0, symName: __ZN6PhotonD1Ev, symObjAddr: 0x11E0, symBinAddr: 0x1000085BC, symSize: 0x3C }
  - { offset: 0x1DB62, size: 0x8, addend: 0x0, symName: __ZNSt12__shared_ptrI8ElectronLN9__gnu_cxx12_Lock_policyE2EEC2EOS3_, symObjAddr: 0x1128, symBinAddr: 0x100008560, symSize: 0x5C }
  - { offset: 0x1DBB5, size: 0x8, addend: 0x0, symName: __ZNSt10shared_ptrI8ElectronEC1EOS1_, symObjAddr: 0x10EC, symBinAddr: 0x100008524, symSize: 0x3C }
  - { offset: 0x1DBE1, size: 0x8, addend: 0x0, symName: __ZN9__gnu_cxx13new_allocatorISt10shared_ptrI8ElectronEE9constructIS3_JS3_EEEvPT_DpOT0_, symObjAddr: 0x10A0, symBinAddr: 0x1000084D8, symSize: 0x4C }
  - { offset: 0x1DC3B, size: 0x8, addend: 0x0, symName: __ZSt7forwardISt10shared_ptrI8ElectronEEOT_RNSt16remove_referenceIS3_E4typeE, symObjAddr: 0x108C, symBinAddr: 0x1000084C4, symSize: 0x14 }
  - { offset: 0x1DC6B, size: 0x8, addend: 0x0, symName: __ZNSt16allocator_traitsISaISt10shared_ptrI8ElectronEEE9constructIS2_JS2_EEEvRS3_PT_DpOT0_, symObjAddr: 0x1054, symBinAddr: 0x10000848C, symSize: 0x38 }
  - { offset: 0x1DCCB, size: 0x8, addend: 0x0, symName: __ZSt4moveIRSt10shared_ptrI8ElectronEEONSt16remove_referenceIT_E4typeEOS5_, symObjAddr: 0x1040, symBinAddr: 0x100008478, symSize: 0x14 }
  - { offset: 0x1DCFB, size: 0x8, addend: 0x0, symName: __ZSt19__relocate_object_aISt10shared_ptrI8ElectronES2_SaIS2_EEvPT_PT0_RT1_, symObjAddr: 0xFF4, symBinAddr: 0x10000842C, symSize: 0x4C }
  - { offset: 0x1DD5E, size: 0x8, addend: 0x0, symName: __ZSt14__relocate_a_1IPSt10shared_ptrI8ElectronES3_SaIS2_EET0_T_S6_S5_RT1_, symObjAddr: 0xF54, symBinAddr: 0x1000083A8, symSize: 0x84 }
  - { offset: 0x1DDE1, size: 0x8, addend: 0x0, symName: __ZSt12__niter_baseIPSt10shared_ptrI8ElectronEET_S4_, symObjAddr: 0xF40, symBinAddr: 0x100008394, symSize: 0x14 }
  - { offset: 0x1DE12, size: 0x8, addend: 0x0, symName: __ZSt12__relocate_aIPSt10shared_ptrI8ElectronES3_SaIS2_EET0_T_S6_S5_RT1_, symObjAddr: 0xE90, symBinAddr: 0x100008338, symSize: 0x5C }
  - { offset: 0x1DE89, size: 0x8, addend: 0x0, symName: __ZNKSt12_Vector_baseISt10shared_ptrI8ElectronESaIS2_EE19_M_get_Tp_allocatorEv, symObjAddr: 0xDF0, symBinAddr: 0x100008324, symSize: 0x14 }
  - { offset: 0x1DEAD, size: 0x8, addend: 0x0, symName: __ZSt8_DestroyISt10shared_ptrI8ElectronEEvPT_, symObjAddr: 0xB7C, symBinAddr: 0x100008304, symSize: 0x20 }
  - { offset: 0x1DEE1, size: 0x8, addend: 0x0, symName: __ZN9__gnu_cxx13new_allocatorISt10shared_ptrI8ElectronEE7destroyIS3_EEvPT_, symObjAddr: 0xB44, symBinAddr: 0x1000082E0, symSize: 0x24 }
  - { offset: 0x1DF1D, size: 0x8, addend: 0x0, symName: __ZNSt6vectorISt10shared_ptrI8ElectronESaIS2_EE14_S_do_relocateEPS2_S5_S5_RS3_St17integral_constantIbLb1EE, symObjAddr: 0xAEC, symBinAddr: 0x1000082A8, symSize: 0x38 }
  - { offset: 0x1DF81, size: 0x8, addend: 0x0, symName: __ZNKSt6vectorISt10shared_ptrI8ElectronESaIS2_EE4sizeEv, symObjAddr: 0xA64, symBinAddr: 0x100008280, symSize: 0x28 }
  - { offset: 0x1DFA9, size: 0x8, addend: 0x0, symName: __ZNKSt6vectorISt10shared_ptrI8ElectronESaIS2_EE8max_sizeEv, symObjAddr: 0xA44, symBinAddr: 0x100008260, symSize: 0x20 }
  - { offset: 0x1DFCD, size: 0x8, addend: 0x0, symName: __ZNSt12_Destroy_auxILb0EE9__destroyIPSt10shared_ptrI8ElectronEEEvT_S6_, symObjAddr: 0x97C, symBinAddr: 0x100008214, symSize: 0x4C }
  - { offset: 0x1E00C, size: 0x8, addend: 0x0, symName: __ZNSt16allocator_traitsISaISt10shared_ptrI8ElectronEEE7destroyIS2_EEvRS3_PT_, symObjAddr: 0x924, symBinAddr: 0x1000081EC, symSize: 0x28 }
  - { offset: 0x1E051, size: 0x8, addend: 0x0, symName: __ZNK9__gnu_cxx17__normal_iteratorIPSt10shared_ptrI8ElectronESt6vectorIS3_SaIS3_EEE4baseEv, symObjAddr: 0x910, symBinAddr: 0x1000081D8, symSize: 0x14 }
  - { offset: 0x1E075, size: 0x8, addend: 0x0, symName: __ZNSt6vectorISt10shared_ptrI8ElectronESaIS2_EE11_S_relocateEPS2_S5_S5_RS3_, symObjAddr: 0x8DC, symBinAddr: 0x1000081A4, symSize: 0x34 }
  - { offset: 0x1E0D3, size: 0x8, addend: 0x0, symName: __ZN9__gnu_cxxmiIPSt10shared_ptrI8ElectronESt6vectorIS3_SaIS3_EEEENS_17__normal_iteratorIT_T0_E15difference_typeERKSB_SE_, symObjAddr: 0x864, symBinAddr: 0x100008164, symSize: 0x40 }
  - { offset: 0x1E121, size: 0x8, addend: 0x0, symName: __ZNSt6vectorISt10shared_ptrI8ElectronESaIS2_EE5beginEv, symObjAddr: 0x840, symBinAddr: 0x100008140, symSize: 0x24 }
  - { offset: 0x1E149, size: 0x8, addend: 0x0, symName: __ZNKSt6vectorISt10shared_ptrI8ElectronESaIS2_EE12_M_check_lenEmPKc, symObjAddr: 0x774, symBinAddr: 0x100008074, symSize: 0xCC }
  - { offset: 0x1E1C8, size: 0x8, addend: 0x0, symName: __ZN9__gnu_cxx17__normal_iteratorIPSt10shared_ptrI8ElectronESt6vectorIS3_SaIS3_EEEC1ERKS4_, symObjAddr: 0x74C, symBinAddr: 0x10000804C, symSize: 0x28 }
  - { offset: 0x1E1F4, size: 0x8, addend: 0x0, symName: __ZN9__gnu_cxx13new_allocatorISt10shared_ptrI8ElectronEE9constructIS3_JRKS3_EEEvPT_DpOT0_, symObjAddr: 0x700, symBinAddr: 0x100008000, symSize: 0x4C }
  - { offset: 0x1E248, size: 0x8, addend: 0x0, symName: __ZSt8_DestroyIPSt10shared_ptrI8ElectronEEvT_S4_, symObjAddr: 0x630, symBinAddr: 0x100007FD8, symSize: 0x28 }
  - { offset: 0x1E28B, size: 0x8, addend: 0x0, symName: __ZNSt6vectorISt10shared_ptrI8ElectronESaIS2_EE17_M_realloc_insertIJRKS2_EEEvN9__gnu_cxx17__normal_iteratorIPS2_S4_EEDpOT_, symObjAddr: 0x474, symBinAddr: 0x100007E60, symSize: 0x178 }
  - { offset: 0x1E33F, size: 0x8, addend: 0x0, symName: __ZNSt6vectorISt10shared_ptrI8ElectronESaIS2_EE3endEv, symObjAddr: 0x44C, symBinAddr: 0x100007E38, symSize: 0x28 }
  - { offset: 0x1E363, size: 0x8, addend: 0x0, symName: __ZNSt16allocator_traitsISaISt10shared_ptrI8ElectronEEE9constructIS2_JRKS2_EEEvRS3_PT_DpOT0_, symObjAddr: 0x414, symBinAddr: 0x100007E00, symSize: 0x38 }
  - { offset: 0x1E3BD, size: 0x8, addend: 0x0, symName: __ZSt8_DestroyIPSt10shared_ptrI8ElectronES2_EvT_S4_RSaIT0_E, symObjAddr: 0x3E8, symBinAddr: 0x100007DD4, symSize: 0x2C }
  - { offset: 0x1E413, size: 0x8, addend: 0x0, symName: __ZNSt6vectorISt10shared_ptrI8ElectronESaIS2_EE9push_backERKS2_, symObjAddr: 0x2B8, symBinAddr: 0x100007D54, symSize: 0x80 }
  - { offset: 0x1E46D, size: 0x8, addend: 0x0, symName: __ZNSt6vectorISt10shared_ptrI8ElectronESaIS2_EED1Ev, symObjAddr: 0x268, symBinAddr: 0x100007D04, symSize: 0x50 }
  - { offset: 0x1E491, size: 0x8, addend: 0x0, symName: __ZNK6Photon9printDataEv, symObjAddr: 0x17C, symBinAddr: 0x100007CB0, symSize: 0x54 }
  - { offset: 0x1E4B9, size: 0x8, addend: 0x0, symName: __ZNK6Photon12getElectronsEv, symObjAddr: 0x164, symBinAddr: 0x100007C98, symSize: 0x18 }
  - { offset: 0x1E4E1, size: 0x8, addend: 0x0, symName: __ZN6Photon11addElectronESt10shared_ptrI8ElectronE, symObjAddr: 0x138, symBinAddr: 0x100007C6C, symSize: 0x2C }
  - { offset: 0x1E53F, size: 0x8, addend: 0x0, symName: __ZN6PhotonC1Ed, symObjAddr: 0xF0, symBinAddr: 0x100007C24, symSize: 0x48 }
  - { offset: 0x1E56F, size: 0x8, addend: 0x0, symName: __ZN6PhotonC2Ed, symObjAddr: 0xA8, symBinAddr: 0x100007BDC, symSize: 0x48 }
  - { offset: 0x1E5A0, size: 0x8, addend: 0x0, symName: __ZL18__gthread_active_pv, symObjAddr: 0x18, symBinAddr: 0x100007BD4, symSize: 0x8 }
  - { offset: 0x2B227, size: 0x8, addend: 0x0, symName: __ZStL8__ioinit, symObjAddr: 0x806F2, symBinAddr: 0x100020004, symSize: 0x0 }
  - { offset: 0x2BD12, size: 0x8, addend: 0x0, symName: __GLOBAL__sub_I_main.cpp, symObjAddr: 0x8020, symBinAddr: 0x10000DEC8, symSize: 0x1C }
  - { offset: 0x2BD2D, size: 0x8, addend: 0x0, symName: __ZN9__gnu_cxx13new_allocatorI18RadioactiveNucleusE7destroyIS1_EEvPT_, symObjAddr: 0x775C, symBinAddr: 0x10000DE38, symSize: 0x30 }
  - { offset: 0x2BD69, size: 0x8, addend: 0x0, symName: __ZNSt14_Sp_ebo_helperILi0ESaI18RadioactiveNucleusELb1EE6_S_getERS2_, symObjAddr: 0x7748, symBinAddr: 0x10000DE24, symSize: 0x14 }
  - { offset: 0x2BD95, size: 0x8, addend: 0x0, symName: __ZN9__gnu_cxx13new_allocatorI13StableNucleusE7destroyIS1_EEvPT_, symObjAddr: 0x7718, symBinAddr: 0x10000DDF4, symSize: 0x30 }
  - { offset: 0x2BDD1, size: 0x8, addend: 0x0, symName: __ZNSt14_Sp_ebo_helperILi0ESaI13StableNucleusELb1EE6_S_getERS2_, symObjAddr: 0x7704, symBinAddr: 0x10000DDE0, symSize: 0x14 }
  - { offset: 0x2BDF9, size: 0x8, addend: 0x0, symName: __ZNSt16allocator_traitsISaI18RadioactiveNucleusEE7destroyIS0_EEvRS1_PT_, symObjAddr: 0x7698, symBinAddr: 0x10000DDB8, symSize: 0x28 }
  - { offset: 0x2BE3E, size: 0x8, addend: 0x0, symName: __ZNSt23_Sp_counted_ptr_inplaceI18RadioactiveNucleusSaIS0_ELN9__gnu_cxx12_Lock_policyE2EE5_Impl8_M_allocEv, symObjAddr: 0x767C, symBinAddr: 0x10000DD9C, symSize: 0x1C }
  - { offset: 0x2BE62, size: 0x8, addend: 0x0, symName: __ZNSt16allocator_traitsISaI13StableNucleusEE7destroyIS0_EEvRS1_PT_, symObjAddr: 0x7654, symBinAddr: 0x10000DD74, symSize: 0x28 }
  - { offset: 0x2BEA7, size: 0x8, addend: 0x0, symName: __ZNSt23_Sp_counted_ptr_inplaceI13StableNucleusSaIS0_ELN9__gnu_cxx12_Lock_policyE2EE5_Impl8_M_allocEv, symObjAddr: 0x7638, symBinAddr: 0x10000DD58, symSize: 0x1C }
  - { offset: 0x2BED4, size: 0x8, addend: 0x0, symName: __ZNSt23_Sp_counted_ptr_inplaceI18RadioactiveNucleusSaIS0_ELN9__gnu_cxx12_Lock_policyE2EE14_M_get_deleterERKSt9type_info, symObjAddr: 0x7584, symBinAddr: 0x10000DCE8, symSize: 0x70 }
  - { offset: 0x2BF1C, size: 0x8, addend: 0x0, symName: __ZNSt23_Sp_counted_ptr_inplaceI18RadioactiveNucleusSaIS0_ELN9__gnu_cxx12_Lock_policyE2EE10_M_destroyEv, symObjAddr: 0x7530, symBinAddr: 0x10000DC94, symSize: 0x54 }
  - { offset: 0x2BF64, size: 0x8, addend: 0x0, symName: __ZNSt23_Sp_counted_ptr_inplaceI18RadioactiveNucleusSaIS0_ELN9__gnu_cxx12_Lock_policyE2EE10_M_disposeEv, symObjAddr: 0x74EC, symBinAddr: 0x10000DC50, symSize: 0x44 }
  - { offset: 0x2BFAE, size: 0x8, addend: 0x0, symName: __ZNSt23_Sp_counted_ptr_inplaceI18RadioactiveNucleusSaIS0_ELN9__gnu_cxx12_Lock_policyE2EED0Ev, symObjAddr: 0x74C4, symBinAddr: 0x10000DC28, symSize: 0x28 }
  - { offset: 0x2BFD6, size: 0x8, addend: 0x0, symName: __ZNSt23_Sp_counted_ptr_inplaceI18RadioactiveNucleusSaIS0_ELN9__gnu_cxx12_Lock_policyE2EED1Ev, symObjAddr: 0x7484, symBinAddr: 0x10000DBE8, symSize: 0x40 }
  - { offset: 0x2BFFF, size: 0x8, addend: 0x0, symName: __ZNSt23_Sp_counted_ptr_inplaceI13StableNucleusSaIS0_ELN9__gnu_cxx12_Lock_policyE2EE14_M_get_deleterERKSt9type_info, symObjAddr: 0x7414, symBinAddr: 0x10000DB78, symSize: 0x70 }
  - { offset: 0x2C047, size: 0x8, addend: 0x0, symName: __ZNSt23_Sp_counted_ptr_inplaceI13StableNucleusSaIS0_ELN9__gnu_cxx12_Lock_policyE2EE10_M_destroyEv, symObjAddr: 0x73C0, symBinAddr: 0x10000DB24, symSize: 0x54 }
  - { offset: 0x2C08F, size: 0x8, addend: 0x0, symName: __ZNSt23_Sp_counted_ptr_inplaceI13StableNucleusSaIS0_ELN9__gnu_cxx12_Lock_policyE2EE10_M_disposeEv, symObjAddr: 0x737C, symBinAddr: 0x10000DAE0, symSize: 0x44 }
  - { offset: 0x2C0D9, size: 0x8, addend: 0x0, symName: __ZNSt23_Sp_counted_ptr_inplaceI13StableNucleusSaIS0_ELN9__gnu_cxx12_Lock_policyE2EED0Ev, symObjAddr: 0x7354, symBinAddr: 0x10000DAB8, symSize: 0x28 }
  - { offset: 0x2C101, size: 0x8, addend: 0x0, symName: __ZNSt23_Sp_counted_ptr_inplaceI13StableNucleusSaIS0_ELN9__gnu_cxx12_Lock_policyE2EED1Ev, symObjAddr: 0x7314, symBinAddr: 0x10000DA78, symSize: 0x40 }
  - { offset: 0x2C121, size: 0x8, addend: 0x0, symName: __Z41__static_initialization_and_destruction_0ii, symObjAddr: 0x7FC0, symBinAddr: 0x10000DE68, symSize: 0x60 }
  - { offset: 0x2C15D, size: 0x8, addend: 0x0, symName: __ZSt4swapIP8ElectronENSt9enable_ifIXsrSt6__and_IJSt6__not_ISt15__is_tuple_likeIT_EESt21is_move_constructibleIS6_ESt18is_move_assignableIS6_EEE5valueEvE4typeERS6_SG_, symObjAddr: 0x7150, symBinAddr: 0x10000DA24, symSize: 0x54 }
  - { offset: 0x2C1B2, size: 0x8, addend: 0x0, symName: __ZSt4moveIRP8ElectronEONSt16remove_referenceIT_E4typeEOS4_, symObjAddr: 0x713C, symBinAddr: 0x10000DA10, symSize: 0x14 }
  - { offset: 0x2C1E6, size: 0x8, addend: 0x0, symName: __ZNSt12__shared_ptrI8ElectronLN9__gnu_cxx12_Lock_policyE2EE4swapERS3_, symObjAddr: 0x70F8, symBinAddr: 0x10000D9CC, symSize: 0x44 }
  - { offset: 0x2C220, size: 0x8, addend: 0x0, symName: __ZSt4moveIRSt12__shared_ptrI8ElectronLN9__gnu_cxx12_Lock_policyE2EEEONSt16remove_referenceIT_E4typeEOS7_, symObjAddr: 0x70E4, symBinAddr: 0x10000D9B8, symSize: 0x14 }
  - { offset: 0x2C254, size: 0x8, addend: 0x0, symName: __ZNSt12__shared_ptrI8ElectronLN9__gnu_cxx12_Lock_policyE2EEaSEOS3_, symObjAddr: 0x70A0, symBinAddr: 0x10000D974, symSize: 0x44 }
  - { offset: 0x2C2B3, size: 0x8, addend: 0x0, symName: __ZNSt12__shared_ptrI8ElectronLN9__gnu_cxx12_Lock_policyE2EEC1EOS3_, symObjAddr: 0x7044, symBinAddr: 0x10000D918, symSize: 0x5C }
  - { offset: 0x2C2DB, size: 0x8, addend: 0x0, symName: __ZNSt11__copy_moveILb0ELb1ESt26random_access_iterator_tagE8__copy_mIdEEPT_PKS3_S6_S4_, symObjAddr: 0x6F00, symBinAddr: 0x10000D8B4, symSize: 0x64 }
  - { offset: 0x2C340, size: 0x8, addend: 0x0, symName: __ZNSt10shared_ptrI8ElectronEaSEOS1_, symObjAddr: 0x6E4C, symBinAddr: 0x10000D878, symSize: 0x3C }
  - { offset: 0x2C37A, size: 0x8, addend: 0x0, symName: __ZSteqIPSt10shared_ptrI8ElectronEEbRKSt13move_iteratorIT_ES8_, symObjAddr: 0x6DA8, symBinAddr: 0x10000D838, symSize: 0x40 }
  - { offset: 0x2C3BF, size: 0x8, addend: 0x0, symName: __ZNKSt13move_iteratorIPSt10shared_ptrI8ElectronEE4baseEv, symObjAddr: 0x6D90, symBinAddr: 0x10000D820, symSize: 0x18 }
  - { offset: 0x2C42D, size: 0x8, addend: 0x0, symName: __ZNSt7__cxx1112basic_stringIcSt11char_traitsIcESaIcEEC1IS3_EEPKcRKS3_, symObjAddr: 0x6CA8, symBinAddr: 0x10000D788, symSize: 0x98 }
  - { offset: 0x2C48A, size: 0x8, addend: 0x0, symName: __ZSt14__copy_move_a2ILb0EPKdPdET1_T0_S4_S3_, symObjAddr: 0x6C7C, symBinAddr: 0x10000D75C, symSize: 0x2C }
  - { offset: 0x2C4F4, size: 0x8, addend: 0x0, symName: __ZSt7forwardIRSt10shared_ptrI8ElectronEEOT_RNSt16remove_referenceIS4_E4typeE, symObjAddr: 0x6AC4, symBinAddr: 0x10000D748, symSize: 0x14 }
  - { offset: 0x2C524, size: 0x8, addend: 0x0, symName: __ZNSt11__copy_moveILb0ELb0ESt26random_access_iterator_tagE8__copy_mIPSt10shared_ptrI8ElectronES6_EET0_T_S8_S7_, symObjAddr: 0x6A50, symBinAddr: 0x10000D6D4, symSize: 0x74 }
  - { offset: 0x2C5B2, size: 0x8, addend: 0x0, symName: __ZNSt10shared_ptrI8ElectronEaSERKS1_, symObjAddr: 0x6A28, symBinAddr: 0x10000D6AC, symSize: 0x28 }
  - { offset: 0x2C5E2, size: 0x8, addend: 0x0, symName: __ZNSt12__shared_ptrI8ElectronLN9__gnu_cxx12_Lock_policyE2EEaSERKS3_, symObjAddr: 0x69E8, symBinAddr: 0x10000D66C, symSize: 0x40 }
  - { offset: 0x2C60E, size: 0x8, addend: 0x0, symName: __ZNSt20__copy_move_backwardILb1ELb0ESt26random_access_iterator_tagE13__copy_move_bIPSt10shared_ptrI8ElectronES6_EET0_T_S8_S7_, symObjAddr: 0x696C, symBinAddr: 0x10000D5F0, symSize: 0x7C }
  - { offset: 0x2C678, size: 0x8, addend: 0x0, symName: __ZSt10_ConstructISt10shared_ptrI8ElectronEJS2_EEvPT_DpOT0_, symObjAddr: 0x6924, symBinAddr: 0x10000D5A8, symSize: 0x48 }
  - { offset: 0x2C6C4, size: 0x8, addend: 0x0, symName: __ZNKSt13move_iteratorIPSt10shared_ptrI8ElectronEEdeEv, symObjAddr: 0x690C, symBinAddr: 0x10000D590, symSize: 0x18 }
  - { offset: 0x2C6E8, size: 0x8, addend: 0x0, symName: __ZStneIPSt10shared_ptrI8ElectronEEbRKSt13move_iteratorIT_ES8_, symObjAddr: 0x68E0, symBinAddr: 0x10000D564, symSize: 0x2C }
  - { offset: 0x2C732, size: 0x8, addend: 0x0, symName: __ZN9__gnu_cxx16__aligned_bufferI13StableNucleusE7_M_addrEv, symObjAddr: 0x68CC, symBinAddr: 0x10000D550, symSize: 0x14 }
  - { offset: 0x2C766, size: 0x8, addend: 0x0, symName: __ZN9__gnu_cxx13new_allocatorI13StableNucleusE9constructIS1_JRA3_KciiEEEvPT_DpOT0_, symObjAddr: 0x67DC, symBinAddr: 0x10000D460, symSize: 0xF0 }
  - { offset: 0x2C802, size: 0x8, addend: 0x0, symName: __ZNSt14_Sp_ebo_helperILi0ESaI13StableNucleusELb1EEC2ERKS1_, symObjAddr: 0x67B4, symBinAddr: 0x10000D438, symSize: 0x28 }
  - { offset: 0x2C82E, size: 0x8, addend: 0x0, symName: __ZN9__gnu_cxx13new_allocatorISt23_Sp_counted_ptr_inplaceI13StableNucleusSaIS2_ELNS_12_Lock_policyE2EEE10deallocateEPS5_m, symObjAddr: 0x6770, symBinAddr: 0x10000D3F4, symSize: 0x44 }
  - { offset: 0x2C870, size: 0x8, addend: 0x0, symName: __ZSt11__addressofISaISt23_Sp_counted_ptr_inplaceI13StableNucleusSaIS1_ELN9__gnu_cxx12_Lock_policyE2EEEEPT_RS7_, symObjAddr: 0x675C, symBinAddr: 0x10000D3E0, symSize: 0x14 }
  - { offset: 0x2C8A4, size: 0x8, addend: 0x0, symName: __ZN9__gnu_cxx13new_allocatorISt23_Sp_counted_ptr_inplaceI13StableNucleusSaIS2_ELNS_12_Lock_policyE2EEE8allocateEmPKv, symObjAddr: 0x66C4, symBinAddr: 0x10000D348, symSize: 0x98 }
  - { offset: 0x2C8F3, size: 0x8, addend: 0x0, symName: __ZNK9__gnu_cxx13new_allocatorISt23_Sp_counted_ptr_inplaceI13StableNucleusSaIS2_ELNS_12_Lock_policyE2EEE11_M_max_sizeEv, symObjAddr: 0x66A4, symBinAddr: 0x10000D328, symSize: 0x20 }
  - { offset: 0x2C917, size: 0x8, addend: 0x0, symName: __ZSt19__relocate_object_aISt10shared_ptrI7NucleusES2_SaIS2_EEvPT_PT0_RT1_, symObjAddr: 0x6658, symBinAddr: 0x10000D2DC, symSize: 0x4C }
  - { offset: 0x2C97E, size: 0x8, addend: 0x0, symName: __ZNK9__gnu_cxx13new_allocatorISt10shared_ptrI7NucleusEE8max_sizeEv, symObjAddr: 0x663C, symBinAddr: 0x10000D2C0, symSize: 0x1C }
  - { offset: 0x2C9AB, size: 0x8, addend: 0x0, symName: __ZN9__gnu_cxx16__aligned_bufferI18RadioactiveNucleusE7_M_addrEv, symObjAddr: 0x6628, symBinAddr: 0x10000D2AC, symSize: 0x14 }
  - { offset: 0x2C9D9, size: 0x8, addend: 0x0, symName: __ZN9__gnu_cxx13new_allocatorI18RadioactiveNucleusE9constructIS1_JRA3_KciidSt6vectorIdSaIdEEEEEvPT_DpOT0_, symObjAddr: 0x64EC, symBinAddr: 0x10000D170, symSize: 0x13C }
  - { offset: 0x2CA93, size: 0x8, addend: 0x0, symName: __ZNSt14_Sp_ebo_helperILi0ESaI18RadioactiveNucleusELb1EEC2ERKS1_, symObjAddr: 0x6474, symBinAddr: 0x10000D148, symSize: 0x28 }
  - { offset: 0x2CABF, size: 0x8, addend: 0x0, symName: __ZN9__gnu_cxx13new_allocatorISt23_Sp_counted_ptr_inplaceI18RadioactiveNucleusSaIS2_ELNS_12_Lock_policyE2EEE10deallocateEPS5_m, symObjAddr: 0x6438, symBinAddr: 0x10000D10C, symSize: 0x3C }
  - { offset: 0x2CB01, size: 0x8, addend: 0x0, symName: __ZSt11__addressofISaISt23_Sp_counted_ptr_inplaceI18RadioactiveNucleusSaIS1_ELN9__gnu_cxx12_Lock_policyE2EEEEPT_RS7_, symObjAddr: 0x6424, symBinAddr: 0x10000D0F8, symSize: 0x14 }
  - { offset: 0x2CB35, size: 0x8, addend: 0x0, symName: __ZN9__gnu_cxx13new_allocatorISt23_Sp_counted_ptr_inplaceI18RadioactiveNucleusSaIS2_ELNS_12_Lock_policyE2EEE8allocateEmPKv, symObjAddr: 0x639C, symBinAddr: 0x10000D070, symSize: 0x88 }
  - { offset: 0x2CB84, size: 0x8, addend: 0x0, symName: __ZNK9__gnu_cxx13new_allocatorISt23_Sp_counted_ptr_inplaceI18RadioactiveNucleusSaIS2_ELNS_12_Lock_policyE2EEE11_M_max_sizeEv, symObjAddr: 0x6384, symBinAddr: 0x10000D058, symSize: 0x18 }
  - { offset: 0x2CBAE, size: 0x8, addend: 0x0, symName: __ZSt12__niter_wrapIPdET_RKS1_S1_, symObjAddr: 0x636C, symBinAddr: 0x10000D040, symSize: 0x18 }
  - { offset: 0x2CBE7, size: 0x8, addend: 0x0, symName: __ZSt14__copy_move_a1ILb0EPKdPdET1_T0_S4_S3_, symObjAddr: 0x6340, symBinAddr: 0x10000D014, symSize: 0x2C }
  - { offset: 0x2CC4B, size: 0x8, addend: 0x0, symName: __ZSt12__niter_baseIPdET_S1_, symObjAddr: 0x632C, symBinAddr: 0x10000D000, symSize: 0x14 }
  - { offset: 0x2CC7C, size: 0x8, addend: 0x0, symName: __ZSt12__niter_baseIPKdET_S2_, symObjAddr: 0x6318, symBinAddr: 0x10000CFEC, symSize: 0x14 }
  - { offset: 0x2CCAD, size: 0x8, addend: 0x0, symName: __ZSt10_ConstructISt10shared_ptrI8ElectronEJRS2_EEvPT_DpOT0_, symObjAddr: 0x614C, symBinAddr: 0x10000CFA4, symSize: 0x48 }
  - { offset: 0x2CCF5, size: 0x8, addend: 0x0, symName: __ZSt14__copy_move_a2ILb0EPSt10shared_ptrI8ElectronES3_ET1_T0_S5_S4_, symObjAddr: 0x60B0, symBinAddr: 0x10000CF78, symSize: 0x2C }
  - { offset: 0x2CD59, size: 0x8, addend: 0x0, symName: __ZSt23__copy_move_backward_a2ILb1EPSt10shared_ptrI8ElectronES3_ET1_T0_S5_S4_, symObjAddr: 0x6084, symBinAddr: 0x10000CF4C, symSize: 0x2C }
  - { offset: 0x2CDBD, size: 0x8, addend: 0x0, symName: __ZNSt20__uninitialized_copyILb0EE13__uninit_copyISt13move_iteratorIPSt10shared_ptrI8ElectronEES6_EET0_T_S9_S8_, symObjAddr: 0x5FE0, symBinAddr: 0x10000CEA8, symSize: 0xA4 }
  - { offset: 0x2CE28, size: 0x8, addend: 0x0, symName: __ZNSt13move_iteratorIPSt10shared_ptrI8ElectronEEppEv, symObjAddr: 0x5FB8, symBinAddr: 0x10000CE80, symSize: 0x28 }
  - { offset: 0x2CE50, size: 0x8, addend: 0x0, symName: __ZN9__gnu_cxx16__aligned_bufferI13StableNucleusE6_M_ptrEv, symObjAddr: 0x5F9C, symBinAddr: 0x10000CE64, symSize: 0x1C }
  - { offset: 0x2CE74, size: 0x8, addend: 0x0, symName: __ZNSt16allocator_traitsISaI13StableNucleusEE9constructIS0_JRA3_KciiEEEvRS1_PT_DpOT0_, symObjAddr: 0x5F34, symBinAddr: 0x10000CDFC, symSize: 0x68 }
  - { offset: 0x2CF13, size: 0x8, addend: 0x0, symName: __ZNSt23_Sp_counted_ptr_inplaceI13StableNucleusSaIS0_ELN9__gnu_cxx12_Lock_policyE2EE5_ImplC1ES1_, symObjAddr: 0x5F0C, symBinAddr: 0x10000CDD4, symSize: 0x28 }
  - { offset: 0x2CF5E, size: 0x8, addend: 0x0, symName: __ZN9__gnu_cxx13new_allocatorI13StableNucleusEC2ERKS2_, symObjAddr: 0x5EF4, symBinAddr: 0x10000CDBC, symSize: 0x18 }
  - { offset: 0x2CF86, size: 0x8, addend: 0x0, symName: __ZSt12__to_addressISt23_Sp_counted_ptr_inplaceI13StableNucleusSaIS1_ELN9__gnu_cxx12_Lock_policyE2EEEPT_S7_, symObjAddr: 0x5EE0, symBinAddr: 0x10000CDA8, symSize: 0x14 }
  - { offset: 0x2CFB6, size: 0x8, addend: 0x0, symName: __ZNSt16allocator_traitsISaISt23_Sp_counted_ptr_inplaceI13StableNucleusSaIS1_ELN9__gnu_cxx12_Lock_policyE2EEEE10deallocateERS6_PS5_m, symObjAddr: 0x5EB0, symBinAddr: 0x10000CD78, symSize: 0x30 }
  - { offset: 0x2D035, size: 0x8, addend: 0x0, symName: __ZNSt15__allocated_ptrISaISt23_Sp_counted_ptr_inplaceI13StableNucleusSaIS1_ELN9__gnu_cxx12_Lock_policyE2EEEEC1ERS6_PS5_, symObjAddr: 0x5E70, symBinAddr: 0x10000CD38, symSize: 0x40 }
  - { offset: 0x2D065, size: 0x8, addend: 0x0, symName: __ZNSt16allocator_traitsISaISt23_Sp_counted_ptr_inplaceI13StableNucleusSaIS1_ELN9__gnu_cxx12_Lock_policyE2EEEE8allocateERS6_m, symObjAddr: 0x5E48, symBinAddr: 0x10000CD10, symSize: 0x28 }
  - { offset: 0x2D0C3, size: 0x8, addend: 0x0, symName: __ZN9__gnu_cxx13new_allocatorISt23_Sp_counted_ptr_inplaceI13StableNucleusSaIS2_ELNS_12_Lock_policyE2EEED2Ev, symObjAddr: 0x5E34, symBinAddr: 0x10000CCFC, symSize: 0x14 }
  - { offset: 0x2D100, size: 0x8, addend: 0x0, symName: __ZN9__gnu_cxx13new_allocatorISt23_Sp_counted_ptr_inplaceI13StableNucleusSaIS2_ELNS_12_Lock_policyE2EEEC2Ev, symObjAddr: 0x5E20, symBinAddr: 0x10000CCE8, symSize: 0x14 }
  - { offset: 0x2D120, size: 0x8, addend: 0x0, symName: __ZSt14__relocate_a_1IPSt10shared_ptrI7NucleusES3_SaIS2_EET0_T_S6_S5_RT1_, symObjAddr: 0x5D9C, symBinAddr: 0x10000CC64, symSize: 0x84 }
  - { offset: 0x2D1A3, size: 0x8, addend: 0x0, symName: __ZSt12__niter_baseIPSt10shared_ptrI7NucleusEET_S4_, symObjAddr: 0x5D88, symBinAddr: 0x10000CC50, symSize: 0x14 }
  - { offset: 0x2D1D4, size: 0x8, addend: 0x0, symName: __ZNSt16allocator_traitsISaISt10shared_ptrI7NucleusEEE8max_sizeERKS3_, symObjAddr: 0x5D6C, symBinAddr: 0x10000CC34, symSize: 0x1C }
  - { offset: 0x2D200, size: 0x8, addend: 0x0, symName: __ZN9__gnu_cxx16__aligned_bufferI18RadioactiveNucleusE6_M_ptrEv, symObjAddr: 0x5D50, symBinAddr: 0x10000CC18, symSize: 0x1C }
  - { offset: 0x2D224, size: 0x8, addend: 0x0, symName: __ZNSt16allocator_traitsISaI18RadioactiveNucleusEE9constructIS0_JRA3_KciidSt6vectorIdSaIdEEEEEvRS1_PT_DpOT0_, symObjAddr: 0x5CB8, symBinAddr: 0x10000CB80, symSize: 0x98 }
  - { offset: 0x2D2DD, size: 0x8, addend: 0x0, symName: __ZNSt23_Sp_counted_ptr_inplaceI18RadioactiveNucleusSaIS0_ELN9__gnu_cxx12_Lock_policyE2EE5_ImplC1ES1_, symObjAddr: 0x5C90, symBinAddr: 0x10000CB58, symSize: 0x28 }
  - { offset: 0x2D328, size: 0x8, addend: 0x0, symName: __ZN9__gnu_cxx13new_allocatorI18RadioactiveNucleusEC2ERKS2_, symObjAddr: 0x5C38, symBinAddr: 0x10000CB40, symSize: 0x18 }
  - { offset: 0x2D350, size: 0x8, addend: 0x0, symName: __ZSt12__to_addressISt23_Sp_counted_ptr_inplaceI18RadioactiveNucleusSaIS1_ELN9__gnu_cxx12_Lock_policyE2EEEPT_S7_, symObjAddr: 0x5C24, symBinAddr: 0x10000CB2C, symSize: 0x14 }
  - { offset: 0x2D380, size: 0x8, addend: 0x0, symName: __ZNSt16allocator_traitsISaISt23_Sp_counted_ptr_inplaceI18RadioactiveNucleusSaIS1_ELN9__gnu_cxx12_Lock_policyE2EEEE10deallocateERS6_PS5_m, symObjAddr: 0x5BF4, symBinAddr: 0x10000CAFC, symSize: 0x30 }
  - { offset: 0x2D3FF, size: 0x8, addend: 0x0, symName: __ZNSt15__allocated_ptrISaISt23_Sp_counted_ptr_inplaceI18RadioactiveNucleusSaIS1_ELN9__gnu_cxx12_Lock_policyE2EEEEC1ERS6_PS5_, symObjAddr: 0x5BB4, symBinAddr: 0x10000CABC, symSize: 0x40 }
  - { offset: 0x2D42F, size: 0x8, addend: 0x0, symName: __ZNSt16allocator_traitsISaISt23_Sp_counted_ptr_inplaceI18RadioactiveNucleusSaIS1_ELN9__gnu_cxx12_Lock_policyE2EEEE8allocateERS6_m, symObjAddr: 0x5B8C, symBinAddr: 0x10000CA94, symSize: 0x28 }
  - { offset: 0x2D48D, size: 0x8, addend: 0x0, symName: __ZN9__gnu_cxx13new_allocatorISt23_Sp_counted_ptr_inplaceI18RadioactiveNucleusSaIS2_ELNS_12_Lock_policyE2EEED2Ev, symObjAddr: 0x5B78, symBinAddr: 0x10000CA80, symSize: 0x14 }
  - { offset: 0x2D4CA, size: 0x8, addend: 0x0, symName: __ZN9__gnu_cxx13new_allocatorISt23_Sp_counted_ptr_inplaceI18RadioactiveNucleusSaIS2_ELNS_12_Lock_policyE2EEEC2Ev, symObjAddr: 0x5B64, symBinAddr: 0x10000CA6C, symSize: 0x14 }
  - { offset: 0x2D4EA, size: 0x8, addend: 0x0, symName: __ZSt13__copy_move_aILb0EPKdPdET1_T0_S4_S3_, symObjAddr: 0x5B04, symBinAddr: 0x10000CA0C, symSize: 0x60 }
  - { offset: 0x2D54E, size: 0x8, addend: 0x0, symName: __ZSt12__miter_baseIPKdET_S2_, symObjAddr: 0x5AF0, symBinAddr: 0x10000C9F8, symSize: 0x14 }
  - { offset: 0x2D57F, size: 0x8, addend: 0x0, symName: __ZNSt20__uninitialized_copyILb0EE13__uninit_copyIN9__gnu_cxx17__normal_iteratorIPSt10shared_ptrI8ElectronESt6vectorIS6_SaIS6_EEEES7_EET0_T_SD_SC_, symObjAddr: 0x572C, symBinAddr: 0x10000C97C, symSize: 0x7C }
  - { offset: 0x2D5EA, size: 0x8, addend: 0x0, symName: __ZN9__gnu_cxx17__normal_iteratorIPSt10shared_ptrI8ElectronESt6vectorIS3_SaIS3_EEEpLEl, symObjAddr: 0x56F8, symBinAddr: 0x10000C948, symSize: 0x34 }
  - { offset: 0x2D61E, size: 0x8, addend: 0x0, symName: __ZSt12__niter_wrapIN9__gnu_cxx17__normal_iteratorIPSt10shared_ptrI8ElectronESt6vectorIS4_SaIS4_EEEES5_ET_SA_T0_, symObjAddr: 0x56BC, symBinAddr: 0x10000C90C, symSize: 0x3C }
  - { offset: 0x2D668, size: 0x8, addend: 0x0, symName: __ZSt14__copy_move_a1ILb0EPSt10shared_ptrI8ElectronES3_ET1_T0_S5_S4_, symObjAddr: 0x5690, symBinAddr: 0x10000C8E0, symSize: 0x2C }
  - { offset: 0x2D6CC, size: 0x8, addend: 0x0, symName: __ZSt12__niter_baseIPSt10shared_ptrI8ElectronESt6vectorIS2_SaIS2_EEET_N9__gnu_cxx17__normal_iteratorIS7_T0_EE, symObjAddr: 0x5670, symBinAddr: 0x10000C8C0, symSize: 0x20 }
  - { offset: 0x2D706, size: 0x8, addend: 0x0, symName: __ZSt12__niter_wrapIPSt10shared_ptrI8ElectronEET_RKS4_S4_, symObjAddr: 0x5658, symBinAddr: 0x10000C8A8, symSize: 0x18 }
  - { offset: 0x2D73F, size: 0x8, addend: 0x0, symName: __ZSt23__copy_move_backward_a1ILb1EPSt10shared_ptrI8ElectronES3_ET1_T0_S5_S4_, symObjAddr: 0x562C, symBinAddr: 0x10000C87C, symSize: 0x2C }
  - { offset: 0x2D7A3, size: 0x8, addend: 0x0, symName: __ZSt18uninitialized_copyISt13move_iteratorIPSt10shared_ptrI8ElectronEES4_ET0_T_S7_S6_, symObjAddr: 0x55E4, symBinAddr: 0x10000C848, symSize: 0x34 }
  - { offset: 0x2D835, size: 0x8, addend: 0x0, symName: __ZNSt13move_iteratorIPSt10shared_ptrI8ElectronEEC1ES3_, symObjAddr: 0x55B4, symBinAddr: 0x10000C818, symSize: 0x30 }
  - { offset: 0x2D869, size: 0x8, addend: 0x0, symName: __ZSt4moveIRPSt10shared_ptrI8ElectronEEONSt16remove_referenceIT_E4typeEOS6_, symObjAddr: 0x55A0, symBinAddr: 0x10000C804, symSize: 0x14 }
  - { offset: 0x2D89D, size: 0x8, addend: 0x0, symName: __ZNSt23_Sp_counted_ptr_inplaceI13StableNucleusSaIS0_ELN9__gnu_cxx12_Lock_policyE2EE6_M_ptrEv, symObjAddr: 0x5580, symBinAddr: 0x10000C7E4, symSize: 0x20 }
  - { offset: 0x2D8C5, size: 0x8, addend: 0x0, symName: __ZNSt15__allocated_ptrISaISt23_Sp_counted_ptr_inplaceI13StableNucleusSaIS1_ELN9__gnu_cxx12_Lock_policyE2EEEEaSEDn, symObjAddr: 0x5560, symBinAddr: 0x10000C7C4, symSize: 0x20 }
  - { offset: 0x2D946, size: 0x8, addend: 0x0, symName: __ZNSt23_Sp_counted_ptr_inplaceI13StableNucleusSaIS0_ELN9__gnu_cxx12_Lock_policyE2EEC1IJRA3_KciiEEES1_DpOT_, symObjAddr: 0x547C, symBinAddr: 0x10000C6E0, symSize: 0xE4 }
  - { offset: 0x2D9CC, size: 0x8, addend: 0x0, symName: __ZNSt23_Sp_counted_ptr_inplaceI13StableNucleusSaIS0_ELN9__gnu_cxx12_Lock_policyE2EE5_ImplD1Ev, symObjAddr: 0x545C, symBinAddr: 0x10000C6C0, symSize: 0x20 }
  - { offset: 0x2DA16, size: 0x8, addend: 0x0, symName: __ZNSt14_Sp_ebo_helperILi0ESaI13StableNucleusELb1EED2Ev, symObjAddr: 0x543C, symBinAddr: 0x10000C6A0, symSize: 0x20 }
  - { offset: 0x2DA60, size: 0x8, addend: 0x0, symName: __ZNSaI13StableNucleusEC1ERKS0_, symObjAddr: 0x5414, symBinAddr: 0x10000C678, symSize: 0x28 }
  - { offset: 0x2DA90, size: 0x8, addend: 0x0, symName: __ZNSaI13StableNucleusEC2ERKS0_, symObjAddr: 0x53EC, symBinAddr: 0x10000C650, symSize: 0x28 }
  - { offset: 0x2DABC, size: 0x8, addend: 0x0, symName: __ZNSt15__allocated_ptrISaISt23_Sp_counted_ptr_inplaceI13StableNucleusSaIS1_ELN9__gnu_cxx12_Lock_policyE2EEEE3getEv, symObjAddr: 0x53CC, symBinAddr: 0x10000C630, symSize: 0x20 }
  - { offset: 0x2DB06, size: 0x8, addend: 0x0, symName: __ZNSt15__allocated_ptrISaISt23_Sp_counted_ptr_inplaceI13StableNucleusSaIS1_ELN9__gnu_cxx12_Lock_policyE2EEEED1Ev, symObjAddr: 0x5384, symBinAddr: 0x10000C5E8, symSize: 0x48 }
  - { offset: 0x2DB26, size: 0x8, addend: 0x0, symName: __ZSt18__allocate_guardedISaISt23_Sp_counted_ptr_inplaceI13StableNucleusSaIS1_ELN9__gnu_cxx12_Lock_policyE2EEEESt15__allocated_ptrIT_ERS8_, symObjAddr: 0x5344, symBinAddr: 0x10000C5A8, symSize: 0x40 }
  - { offset: 0x2DB7C, size: 0x8, addend: 0x0, symName: __ZNSaISt23_Sp_counted_ptr_inplaceI13StableNucleusSaIS0_ELN9__gnu_cxx12_Lock_policyE2EEED1Ev, symObjAddr: 0x5324, symBinAddr: 0x10000C588, symSize: 0x20 }
  - { offset: 0x2DBC7, size: 0x8, addend: 0x0, symName: __ZNSaISt23_Sp_counted_ptr_inplaceI13StableNucleusSaIS0_ELN9__gnu_cxx12_Lock_policyE2EEEC1IS0_EERKSaIT_E, symObjAddr: 0x5300, symBinAddr: 0x10000C564, symSize: 0x24 }
  - { offset: 0x2DBF8, size: 0x8, addend: 0x0, symName: __ZSt12__relocate_aIPSt10shared_ptrI7NucleusES3_SaIS2_EET0_T_S6_S5_RT1_, symObjAddr: 0x52A4, symBinAddr: 0x10000C508, symSize: 0x5C }
  - { offset: 0x2DC6F, size: 0x8, addend: 0x0, symName: __ZN9__gnu_cxx13new_allocatorISt10shared_ptrI7NucleusEE8allocateEmPKv, symObjAddr: 0x522C, symBinAddr: 0x10000C490, symSize: 0x78 }
  - { offset: 0x2DCBE, size: 0x8, addend: 0x0, symName: __ZNK9__gnu_cxx13new_allocatorISt10shared_ptrI7NucleusEE11_M_max_sizeEv, symObjAddr: 0x5218, symBinAddr: 0x10000C47C, symSize: 0x14 }
  - { offset: 0x2DCE6, size: 0x8, addend: 0x0, symName: __ZNKSt12_Vector_baseISt10shared_ptrI7NucleusESaIS2_EE19_M_get_Tp_allocatorEv, symObjAddr: 0x5204, symBinAddr: 0x10000C468, symSize: 0x14 }
  - { offset: 0x2DD0A, size: 0x8, addend: 0x0, symName: __ZNSt6vectorISt10shared_ptrI7NucleusESaIS2_EE11_S_max_sizeERKS3_, symObjAddr: 0x51CC, symBinAddr: 0x10000C430, symSize: 0x38 }
  - { offset: 0x2DD7D, size: 0x8, addend: 0x0, symName: __ZNSt12__shared_ptrI7NucleusLN9__gnu_cxx12_Lock_policyE2EEC2EOS3_, symObjAddr: 0x5170, symBinAddr: 0x10000C3D4, symSize: 0x5C }
  - { offset: 0x2DDA9, size: 0x8, addend: 0x0, symName: __ZNSt23_Sp_counted_ptr_inplaceI18RadioactiveNucleusSaIS0_ELN9__gnu_cxx12_Lock_policyE2EE6_M_ptrEv, symObjAddr: 0x5150, symBinAddr: 0x10000C3B4, symSize: 0x20 }
  - { offset: 0x2DDD1, size: 0x8, addend: 0x0, symName: __ZNSt15__allocated_ptrISaISt23_Sp_counted_ptr_inplaceI18RadioactiveNucleusSaIS1_ELN9__gnu_cxx12_Lock_policyE2EEEEaSEDn, symObjAddr: 0x5130, symBinAddr: 0x10000C394, symSize: 0x20 }
  - { offset: 0x2DE66, size: 0x8, addend: 0x0, symName: __ZNSt23_Sp_counted_ptr_inplaceI18RadioactiveNucleusSaIS0_ELN9__gnu_cxx12_Lock_policyE2EEC1IJRA3_KciidSt6vectorIdSaIdEEEEES1_DpOT_, symObjAddr: 0x501C, symBinAddr: 0x10000C280, symSize: 0x114 }
  - { offset: 0x2DF07, size: 0x8, addend: 0x0, symName: __ZNSt23_Sp_counted_ptr_inplaceI18RadioactiveNucleusSaIS0_ELN9__gnu_cxx12_Lock_policyE2EE5_ImplD1Ev, symObjAddr: 0x4FFC, symBinAddr: 0x10000C260, symSize: 0x20 }
  - { offset: 0x2DF51, size: 0x8, addend: 0x0, symName: __ZNSt14_Sp_ebo_helperILi0ESaI18RadioactiveNucleusELb1EED2Ev, symObjAddr: 0x4FDC, symBinAddr: 0x10000C240, symSize: 0x20 }
  - { offset: 0x2DF9B, size: 0x8, addend: 0x0, symName: __ZNSaI18RadioactiveNucleusEC1ERKS0_, symObjAddr: 0x4FB4, symBinAddr: 0x10000C218, symSize: 0x28 }
  - { offset: 0x2DFCB, size: 0x8, addend: 0x0, symName: __ZNSaI18RadioactiveNucleusEC2ERKS0_, symObjAddr: 0x4F8C, symBinAddr: 0x10000C1F0, symSize: 0x28 }
  - { offset: 0x2DFF7, size: 0x8, addend: 0x0, symName: __ZNSt15__allocated_ptrISaISt23_Sp_counted_ptr_inplaceI18RadioactiveNucleusSaIS1_ELN9__gnu_cxx12_Lock_policyE2EEEE3getEv, symObjAddr: 0x4F6C, symBinAddr: 0x10000C1D0, symSize: 0x20 }
  - { offset: 0x2E041, size: 0x8, addend: 0x0, symName: __ZNSt15__allocated_ptrISaISt23_Sp_counted_ptr_inplaceI18RadioactiveNucleusSaIS1_ELN9__gnu_cxx12_Lock_policyE2EEEED1Ev, symObjAddr: 0x4F24, symBinAddr: 0x10000C188, symSize: 0x48 }
  - { offset: 0x2E061, size: 0x8, addend: 0x0, symName: __ZSt18__allocate_guardedISaISt23_Sp_counted_ptr_inplaceI18RadioactiveNucleusSaIS1_ELN9__gnu_cxx12_Lock_policyE2EEEESt15__allocated_ptrIT_ERS8_, symObjAddr: 0x4EE4, symBinAddr: 0x10000C148, symSize: 0x40 }
  - { offset: 0x2E0B7, size: 0x8, addend: 0x0, symName: __ZNSaISt23_Sp_counted_ptr_inplaceI18RadioactiveNucleusSaIS0_ELN9__gnu_cxx12_Lock_policyE2EEED1Ev, symObjAddr: 0x4EC4, symBinAddr: 0x10000C128, symSize: 0x20 }
  - { offset: 0x2E102, size: 0x8, addend: 0x0, symName: __ZNSaISt23_Sp_counted_ptr_inplaceI18RadioactiveNucleusSaIS0_ELN9__gnu_cxx12_Lock_policyE2EEEC1IS0_EERKSaIT_E, symObjAddr: 0x4EA0, symBinAddr: 0x10000C104, symSize: 0x24 }
  - { offset: 0x2E133, size: 0x8, addend: 0x0, symName: __ZSt4copyIPKdPdET0_T_S4_S3_, symObjAddr: 0x4E58, symBinAddr: 0x10000C0BC, symSize: 0x48 }
  - { offset: 0x2E191, size: 0x8, addend: 0x0, symName: __ZNK9__gnu_cxx13new_allocatorIdE8max_sizeEv, symObjAddr: 0x4E3C, symBinAddr: 0x10000C0A0, symSize: 0x1C }
  - { offset: 0x2E1BB, size: 0x8, addend: 0x0, symName: __ZSt32__make_move_if_noexcept_iteratorISt10shared_ptrI8ElectronESt13move_iteratorIPS2_EET0_PT_, symObjAddr: 0x4CE0, symBinAddr: 0x10000C07C, symSize: 0x24 }
  - { offset: 0x2E1F5, size: 0x8, addend: 0x0, symName: __ZSt18uninitialized_copyIN9__gnu_cxx17__normal_iteratorIPSt10shared_ptrI8ElectronESt6vectorIS4_SaIS4_EEEES5_ET0_T_SB_SA_, symObjAddr: 0x4C64, symBinAddr: 0x10000C048, symSize: 0x34 }
  - { offset: 0x2E25C, size: 0x8, addend: 0x0, symName: __ZSt9__advanceIN9__gnu_cxx17__normal_iteratorIPSt10shared_ptrI8ElectronESt6vectorIS4_SaIS4_EEEElEvRT_T0_St26random_access_iterator_tag, symObjAddr: 0x4C38, symBinAddr: 0x10000C01C, symSize: 0x2C }
  - { offset: 0x2E2AC, size: 0x8, addend: 0x0, symName: __ZSt13__copy_move_aILb0EN9__gnu_cxx17__normal_iteratorIPSt10shared_ptrI8ElectronESt6vectorIS4_SaIS4_EEEES9_ET1_T0_SB_SA_, symObjAddr: 0x4BD8, symBinAddr: 0x10000BFBC, symSize: 0x60 }
  - { offset: 0x2E310, size: 0x8, addend: 0x0, symName: __ZSt12__miter_baseIN9__gnu_cxx17__normal_iteratorIPSt10shared_ptrI8ElectronESt6vectorIS4_SaIS4_EEEEET_SA_, symObjAddr: 0x4BC4, symBinAddr: 0x10000BFA8, symSize: 0x14 }
  - { offset: 0x2E341, size: 0x8, addend: 0x0, symName: __ZSt22__copy_move_backward_aILb1EPSt10shared_ptrI8ElectronES3_ET1_T0_S5_S4_, symObjAddr: 0x4B64, symBinAddr: 0x10000BF48, symSize: 0x60 }
  - { offset: 0x2E3A5, size: 0x8, addend: 0x0, symName: __ZSt12__miter_baseIPSt10shared_ptrI8ElectronEET_S4_, symObjAddr: 0x4B50, symBinAddr: 0x10000BF34, symSize: 0x14 }
  - { offset: 0x2E3D6, size: 0x8, addend: 0x0, symName: __ZSt22__uninitialized_copy_aISt13move_iteratorIPSt10shared_ptrI8ElectronEES4_S3_ET0_T_S7_S6_RSaIT1_E, symObjAddr: 0x4B20, symBinAddr: 0x10000BF04, symSize: 0x30 }
  - { offset: 0x2E441, size: 0x8, addend: 0x0, symName: __ZSt18make_move_iteratorIPSt10shared_ptrI8ElectronEESt13move_iteratorIT_ES5_, symObjAddr: 0x4AF4, symBinAddr: 0x10000BED8, symSize: 0x2C }
  - { offset: 0x2E498, size: 0x8, addend: 0x0, symName: __ZNSt12__shared_ptrI8ElectronLN9__gnu_cxx12_Lock_policyE2EED1Ev, symObjAddr: 0x4A90, symBinAddr: 0x10000BEB4, symSize: 0x24 }
  - { offset: 0x2E4BC, size: 0x8, addend: 0x0, symName: __ZNSt12__shared_ptrI13StableNucleusLN9__gnu_cxx12_Lock_policyE2EE31_M_enable_shared_from_this_withIS0_S0_EENSt9enable_ifIXntsrNS3_15__has_esft_baseIT0_vEE5valueEvE4typeEPT_, symObjAddr: 0x4A40, symBinAddr: 0x10000BE9C, symSize: 0x18 }
  - { offset: 0x2E5C3, size: 0x8, addend: 0x0, symName: __ZNSt14__shared_countILN9__gnu_cxx12_Lock_policyE2EEC1I13StableNucleusSaIS4_EJRA3_KciiEEERPT_St20_Sp_alloc_shared_tagIT0_EDpOT1_, symObjAddr: 0x48F0, symBinAddr: 0x10000BD4C, symSize: 0x150 }
  - { offset: 0x2E68E, size: 0x8, addend: 0x0, symName: __ZN9__gnu_cxx13new_allocatorISt10shared_ptrI7NucleusEE7destroyIS3_EEvPT_, symObjAddr: 0x48CC, symBinAddr: 0x10000BD28, symSize: 0x24 }
  - { offset: 0x2E6CA, size: 0x8, addend: 0x0, symName: __ZNSt6vectorISt10shared_ptrI7NucleusESaIS2_EE14_S_do_relocateEPS2_S5_S5_RS3_St17integral_constantIbLb1EE, symObjAddr: 0x4894, symBinAddr: 0x10000BCF0, symSize: 0x38 }
  - { offset: 0x2E72A, size: 0x8, addend: 0x0, symName: __ZNSt16allocator_traitsISaISt10shared_ptrI7NucleusEEE8allocateERS3_m, symObjAddr: 0x486C, symBinAddr: 0x10000BCC8, symSize: 0x28 }
  - { offset: 0x2E766, size: 0x8, addend: 0x0, symName: __ZNKSt6vectorISt10shared_ptrI7NucleusESaIS2_EE4sizeEv, symObjAddr: 0x480C, symBinAddr: 0x10000BCA0, symSize: 0x28 }
  - { offset: 0x2E78E, size: 0x8, addend: 0x0, symName: __ZNKSt6vectorISt10shared_ptrI7NucleusESaIS2_EE8max_sizeEv, symObjAddr: 0x47EC, symBinAddr: 0x10000BC80, symSize: 0x20 }
  - { offset: 0x2E7DD, size: 0x8, addend: 0x0, symName: __ZNSt10shared_ptrI7NucleusEC1EOS1_, symObjAddr: 0x47B0, symBinAddr: 0x10000BC44, symSize: 0x3C }
  - { offset: 0x2E809, size: 0x8, addend: 0x0, symName: __ZNSt12__shared_ptrI18RadioactiveNucleusLN9__gnu_cxx12_Lock_policyE2EE31_M_enable_shared_from_this_withIS0_S0_EENSt9enable_ifIXntsrNS3_15__has_esft_baseIT0_vEE5valueEvE4typeEPT_, symObjAddr: 0x4798, symBinAddr: 0x10000BC2C, symSize: 0x18 }
  - { offset: 0x2E924, size: 0x8, addend: 0x0, symName: __ZNSt14__shared_countILN9__gnu_cxx12_Lock_policyE2EEC1I18RadioactiveNucleusSaIS4_EJRA3_KciidSt6vectorIdSaIdEEEEERPT_St20_Sp_alloc_shared_tagIT0_EDpOT1_, symObjAddr: 0x4618, symBinAddr: 0x10000BAAC, symSize: 0x180 }
  - { offset: 0x2EA07, size: 0x8, addend: 0x0, symName: __ZNSt20__uninitialized_copyILb1EE13__uninit_copyIPKdPdEET0_T_S6_S5_, symObjAddr: 0x45EC, symBinAddr: 0x10000BA80, symSize: 0x2C }
  - { offset: 0x2EA62, size: 0x8, addend: 0x0, symName: __ZN9__gnu_cxx13new_allocatorIdE8allocateEmPKv, symObjAddr: 0x4574, symBinAddr: 0x10000BA08, symSize: 0x78 }
  - { offset: 0x2EAB1, size: 0x8, addend: 0x0, symName: __ZNK9__gnu_cxx13new_allocatorIdE11_M_max_sizeEv, symObjAddr: 0x4560, symBinAddr: 0x10000B9F4, symSize: 0x14 }
  - { offset: 0x2EAD5, size: 0x8, addend: 0x0, symName: __ZNSt16allocator_traitsISaIdEE8max_sizeERKS0_, symObjAddr: 0x450C, symBinAddr: 0x10000B9D8, symSize: 0x1C }
  - { offset: 0x2EAFD, size: 0x8, addend: 0x0, symName: __ZSt8_DestroyISt10shared_ptrI7NucleusEEvPT_, symObjAddr: 0x4470, symBinAddr: 0x10000B9B8, symSize: 0x20 }
  - { offset: 0x2EB2D, size: 0x8, addend: 0x0, symName: __ZSt11__addressofISt10shared_ptrI7NucleusEEPT_RS3_, symObjAddr: 0x445C, symBinAddr: 0x10000B9A4, symSize: 0x14 }
  - { offset: 0x2EB5D, size: 0x8, addend: 0x0, symName: __ZSt10__distanceIPKcENSt15iterator_traitsIT_E15difference_typeES3_S3_St26random_access_iterator_tag, symObjAddr: 0x4438, symBinAddr: 0x10000B980, symSize: 0x24 }
  - { offset: 0x2EBA4, size: 0x8, addend: 0x0, symName: __ZSt19__iterator_categoryIPKcENSt15iterator_traitsIT_E17iterator_categoryERKS3_, symObjAddr: 0x4424, symBinAddr: 0x10000B96C, symSize: 0x14 }
  - { offset: 0x2EBCD, size: 0x8, addend: 0x0, symName: __ZN9__gnu_cxx17__is_null_pointerIKcEEbPT_, symObjAddr: 0x4404, symBinAddr: 0x10000B94C, symSize: 0x20 }
  - { offset: 0x2EBFD, size: 0x8, addend: 0x0, symName: __ZSt34__uninitialized_move_if_noexcept_aIPSt10shared_ptrI8ElectronES3_SaIS2_EET0_T_S6_S5_RT1_, symObjAddr: 0x4348, symBinAddr: 0x10000B8FC, symSize: 0x50 }
  - { offset: 0x2EC70, size: 0x8, addend: 0x0, symName: __ZSt22__uninitialized_copy_aIN9__gnu_cxx17__normal_iteratorIPSt10shared_ptrI8ElectronESt6vectorIS4_SaIS4_EEEES5_S4_ET0_T_SB_SA_RSaIT1_E, symObjAddr: 0x4214, symBinAddr: 0x10000B8CC, symSize: 0x30 }
  - { offset: 0x2ECDB, size: 0x8, addend: 0x0, symName: __ZSt7advanceIN9__gnu_cxx17__normal_iteratorIPSt10shared_ptrI8ElectronESt6vectorIS4_SaIS4_EEEEmEvRT_T0_, symObjAddr: 0x41D0, symBinAddr: 0x10000B888, symSize: 0x44 }
  - { offset: 0x2ED33, size: 0x8, addend: 0x0, symName: __ZSt4copyIN9__gnu_cxx17__normal_iteratorIPSt10shared_ptrI8ElectronESt6vectorIS4_SaIS4_EEEES9_ET0_T_SB_SA_, symObjAddr: 0x4188, symBinAddr: 0x10000B840, symSize: 0x48 }
  - { offset: 0x2ED8D, size: 0x8, addend: 0x0, symName: __ZSt13move_backwardIPSt10shared_ptrI8ElectronES3_ET0_T_S5_S4_, symObjAddr: 0x4140, symBinAddr: 0x10000B7F8, symSize: 0x48 }
  - { offset: 0x2EDE7, size: 0x8, addend: 0x0, symName: __ZSt22__uninitialized_move_aIPSt10shared_ptrI8ElectronES3_SaIS2_EET0_T_S6_S5_RT1_, symObjAddr: 0x40F0, symBinAddr: 0x10000B7A8, symSize: 0x50 }
  - { offset: 0x2EE60, size: 0x8, addend: 0x0, symName: __ZSt10__distanceIN9__gnu_cxx17__normal_iteratorIPSt10shared_ptrI8ElectronESt6vectorIS4_SaIS4_EEEEENSt15iterator_traitsIT_E15difference_typeESB_SB_St26random_access_iterator_tag, symObjAddr: 0x4088, symBinAddr: 0x10000B780, symSize: 0x28 }
  - { offset: 0x2EF05, size: 0x8, addend: 0x0, symName: __ZNSt12__shared_ptrI13StableNucleusLN9__gnu_cxx12_Lock_policyE2EEC2ISaIS0_EJRA3_KciiEEESt20_Sp_alloc_shared_tagIT_EDpOT0_, symObjAddr: 0x3F70, symBinAddr: 0x10000B6E4, symSize: 0x9C }
  - { offset: 0x2EF6D, size: 0x8, addend: 0x0, symName: __ZNK9__gnu_cxx17__normal_iteratorIPSt10shared_ptrI7NucleusESt6vectorIS3_SaIS3_EEEmiEl, symObjAddr: 0x3F2C, symBinAddr: 0x10000B6A0, symSize: 0x44 }
  - { offset: 0x2EFA1, size: 0x8, addend: 0x0, symName: __ZNSt16allocator_traitsISaISt10shared_ptrI7NucleusEEE7destroyIS2_EEvRS3_PT_, symObjAddr: 0x3F04, symBinAddr: 0x10000B678, symSize: 0x28 }
  - { offset: 0x2EFE2, size: 0x8, addend: 0x0, symName: __ZNSt6vectorISt10shared_ptrI7NucleusESaIS2_EE11_S_relocateEPS2_S5_S5_RS3_, symObjAddr: 0x3ED0, symBinAddr: 0x10000B644, symSize: 0x34 }
  - { offset: 0x2F03E, size: 0x8, addend: 0x0, symName: __ZNSt12_Vector_baseISt10shared_ptrI7NucleusESaIS2_EE11_M_allocateEm, symObjAddr: 0x3E98, symBinAddr: 0x10000B60C, symSize: 0x38 }
  - { offset: 0x2F078, size: 0x8, addend: 0x0, symName: __ZN9__gnu_cxxmiIPSt10shared_ptrI7NucleusESt6vectorIS3_SaIS3_EEEENS_17__normal_iteratorIT_T0_E15difference_typeERKSB_SE_, symObjAddr: 0x3E58, symBinAddr: 0x10000B5CC, symSize: 0x40 }
  - { offset: 0x2F0C6, size: 0x8, addend: 0x0, symName: __ZNKSt6vectorISt10shared_ptrI7NucleusESaIS2_EE12_M_check_lenEmPKc, symObjAddr: 0x3D8C, symBinAddr: 0x10000B500, symSize: 0xCC }
  - { offset: 0x2F11E, size: 0x8, addend: 0x0, symName: __ZN9__gnu_cxx13new_allocatorISt10shared_ptrI7NucleusEE9constructIS3_JS3_EEEvPT_DpOT0_, symObjAddr: 0x3D40, symBinAddr: 0x10000B4B4, symSize: 0x4C }
  - { offset: 0x2F1E4, size: 0x8, addend: 0x0, symName: __ZNSt12__shared_ptrI18RadioactiveNucleusLN9__gnu_cxx12_Lock_policyE2EEC2ISaIS0_EJRA3_KciidSt6vectorIdSaIdEEEEESt20_Sp_alloc_shared_tagIT_EDpOT0_, symObjAddr: 0x3C4C, symBinAddr: 0x10000B3E8, symSize: 0xCC }
  - { offset: 0x2F262, size: 0x8, addend: 0x0, symName: __ZSt18uninitialized_copyIPKdPdET0_T_S4_S3_, symObjAddr: 0x3C00, symBinAddr: 0x10000B3B4, symSize: 0x34 }
  - { offset: 0x2F2C9, size: 0x8, addend: 0x0, symName: __ZNSt16allocator_traitsISaIdEE8allocateERS0_m, symObjAddr: 0x3BD8, symBinAddr: 0x10000B38C, symSize: 0x28 }
  - { offset: 0x2F301, size: 0x8, addend: 0x0, symName: __ZNSt6vectorIdSaIdEE11_S_max_sizeERKS0_, symObjAddr: 0x3BA0, symBinAddr: 0x10000B354, symSize: 0x38 }
  - { offset: 0x2F366, size: 0x8, addend: 0x0, symName: __ZNSt12_Vector_baseIdSaIdEE17_Vector_impl_dataC2Ev, symObjAddr: 0x3B44, symBinAddr: 0x10000B328, symSize: 0x2C }
  - { offset: 0x2F3B0, size: 0x8, addend: 0x0, symName: __ZNSaIdEC1ERKS_, symObjAddr: 0x3B1C, symBinAddr: 0x10000B300, symSize: 0x28 }
  - { offset: 0x2F3D8, size: 0x8, addend: 0x0, symName: __ZNSt12_Destroy_auxILb0EE9__destroyIPSt10shared_ptrI7NucleusEEEvT_S6_, symObjAddr: 0x3A2C, symBinAddr: 0x10000B2B4, symSize: 0x4C }
  - { offset: 0x2F41B, size: 0x8, addend: 0x0, symName: __ZN9__gnu_cxx13new_allocatorISt10shared_ptrI7NucleusEE10deallocateEPS3_m, symObjAddr: 0x39FC, symBinAddr: 0x10000B284, symSize: 0x30 }
  - { offset: 0x2F461, size: 0x8, addend: 0x0, symName: __ZNSt7__cxx1112basic_stringIcSt11char_traitsIcESaIcEE12_M_constructIPKcEEvT_S8_St20forward_iterator_tag, symObjAddr: 0x3900, symBinAddr: 0x10000B188, symSize: 0xFC }
  - { offset: 0x2F4C4, size: 0x8, addend: 0x0, symName: __ZSt8distanceIPKcENSt15iterator_traitsIT_E15difference_typeES3_S3_, symObjAddr: 0x38C4, symBinAddr: 0x10000B14C, symSize: 0x3C }
  - { offset: 0x2F507, size: 0x8, addend: 0x0, symName: __ZNKSt12__shared_ptrI8ElectronLN9__gnu_cxx12_Lock_policyE2EE3getEv, symObjAddr: 0x3840, symBinAddr: 0x10000B134, symSize: 0x18 }
  - { offset: 0x2F52F, size: 0x8, addend: 0x0, symName: __ZNSt6vectorISt10shared_ptrI8ElectronESaIS2_EE15_M_range_insertIN9__gnu_cxx17__normal_iteratorIPS2_S4_EEEEvS9_T_SA_St20forward_iterator_tag, symObjAddr: 0x349C, symBinAddr: 0x10000AD90, symSize: 0x3A4 }
  - { offset: 0x2F631, size: 0x8, addend: 0x0, symName: __ZSt8distanceIN9__gnu_cxx17__normal_iteratorIPSt10shared_ptrI8ElectronESt6vectorIS4_SaIS4_EEEEENSt15iterator_traitsIT_E15difference_typeESB_SB_, symObjAddr: 0x3464, symBinAddr: 0x10000AD58, symSize: 0x38 }
  - { offset: 0x2F670, size: 0x8, addend: 0x0, symName: __ZSt19__iterator_categoryIN9__gnu_cxx17__normal_iteratorIPSt10shared_ptrI8ElectronESt6vectorIS4_SaIS4_EEEEENSt15iterator_traitsIT_E17iterator_categoryERKSB_, symObjAddr: 0x3450, symBinAddr: 0x10000AD44, symSize: 0x14 }
  - { offset: 0x2F69D, size: 0x8, addend: 0x0, symName: __ZNK9__gnu_cxx17__normal_iteratorIPKSt10shared_ptrI8ElectronESt6vectorIS3_SaIS3_EEE4baseEv, symObjAddr: 0x343C, symBinAddr: 0x10000AD30, symSize: 0x14 }
  - { offset: 0x2F6EC, size: 0x8, addend: 0x0, symName: __ZN9__gnu_cxx17__normal_iteratorIPKSt10shared_ptrI8ElectronESt6vectorIS3_SaIS3_EEEC1ERKS5_, symObjAddr: 0x3414, symBinAddr: 0x10000AD08, symSize: 0x28 }
  - { offset: 0x2F718, size: 0x8, addend: 0x0, symName: __ZNKSt12__shared_ptrI18RadioactiveNucleusLN9__gnu_cxx12_Lock_policyE2EE3getEv, symObjAddr: 0x3378, symBinAddr: 0x10000ACF0, symSize: 0x18 }
  - { offset: 0x2F759, size: 0x8, addend: 0x0, symName: __ZNSt12__shared_ptrI18RadioactiveNucleusLN9__gnu_cxx12_Lock_policyE2EEC2Ev, symObjAddr: 0x334C, symBinAddr: 0x10000ACC4, symSize: 0x2C }
  - { offset: 0x2F7BB, size: 0x8, addend: 0x0, symName: __ZNSt12__shared_ptrI18RadioactiveNucleusLN9__gnu_cxx12_Lock_policyE2EEC2I7NucleusEERKS_IT_LS2_2EEPS0_, symObjAddr: 0x3304, symBinAddr: 0x10000AC7C, symSize: 0x48 }
  - { offset: 0x2F852, size: 0x8, addend: 0x0, symName: __ZNSt10shared_ptrI13StableNucleusEC1ISaIS0_EJRA3_KciiEEESt20_Sp_alloc_shared_tagIT_EDpOT0_, symObjAddr: 0x3290, symBinAddr: 0x10000AC08, symSize: 0x74 }
  - { offset: 0x2F8DC, size: 0x8, addend: 0x0, symName: __ZN9__gnu_cxx13new_allocatorI13StableNucleusED2Ev, symObjAddr: 0x327C, symBinAddr: 0x10000ABF4, symSize: 0x14 }
  - { offset: 0x2F919, size: 0x8, addend: 0x0, symName: __ZN9__gnu_cxx13new_allocatorI13StableNucleusEC2Ev, symObjAddr: 0x3268, symBinAddr: 0x10000ABE0, symSize: 0x14 }
  - { offset: 0x2F93D, size: 0x8, addend: 0x0, symName: __ZNSt6vectorISt10shared_ptrI7NucleusESaIS2_EE4backEv, symObjAddr: 0x3230, symBinAddr: 0x10000ABA8, symSize: 0x38 }
  - { offset: 0x2F965, size: 0x8, addend: 0x0, symName: __ZNSt6vectorISt10shared_ptrI7NucleusESaIS2_EE17_M_realloc_insertIJS2_EEEvN9__gnu_cxx17__normal_iteratorIPS2_S4_EEDpOT_, symObjAddr: 0x30B8, symBinAddr: 0x10000AA30, symSize: 0x178 }
  - { offset: 0x2FA15, size: 0x8, addend: 0x0, symName: __ZNSt16allocator_traitsISaISt10shared_ptrI7NucleusEEE9constructIS2_JS2_EEEvRS3_PT_DpOT0_, symObjAddr: 0x3080, symBinAddr: 0x10000A9F8, symSize: 0x38 }
  - { offset: 0x2FA75, size: 0x8, addend: 0x0, symName: __ZSt7forwardISt10shared_ptrI7NucleusEEOT_RNSt16remove_referenceIS3_E4typeE, symObjAddr: 0x306C, symBinAddr: 0x10000A9E4, symSize: 0x14 }
  - { offset: 0x2FB17, size: 0x8, addend: 0x0, symName: __ZNSt10shared_ptrI18RadioactiveNucleusEC1ISaIS0_EJRA3_KciidSt6vectorIdSaIdEEEEESt20_Sp_alloc_shared_tagIT_EDpOT0_, symObjAddr: 0x2F30, symBinAddr: 0x10000A940, symSize: 0xA4 }
  - { offset: 0x2FBBB, size: 0x8, addend: 0x0, symName: __ZN9__gnu_cxx13new_allocatorI18RadioactiveNucleusED2Ev, symObjAddr: 0x2F1C, symBinAddr: 0x10000A92C, symSize: 0x14 }
  - { offset: 0x2FBF8, size: 0x8, addend: 0x0, symName: __ZN9__gnu_cxx13new_allocatorI18RadioactiveNucleusEC2Ev, symObjAddr: 0x2F08, symBinAddr: 0x10000A918, symSize: 0x14 }
  - { offset: 0x2FC18, size: 0x8, addend: 0x0, symName: __ZSt22__uninitialized_copy_aIPKdPddET0_T_S4_S3_RSaIT1_E, symObjAddr: 0x2EB0, symBinAddr: 0x10000A8E8, symSize: 0x30 }
  - { offset: 0x2FC87, size: 0x8, addend: 0x0, symName: __ZNSt12_Vector_baseIdSaIdEE11_M_allocateEm, symObjAddr: 0x2E78, symBinAddr: 0x10000A8B0, symSize: 0x38 }
  - { offset: 0x2FCBB, size: 0x8, addend: 0x0, symName: __ZNSt6vectorIdSaIdEE17_S_check_init_lenEmRKS0_, symObjAddr: 0x2E10, symBinAddr: 0x10000A848, symSize: 0x68 }
  - { offset: 0x2FCF3, size: 0x8, addend: 0x0, symName: __ZSt10__distanceIPKdENSt15iterator_traitsIT_E15difference_typeES3_S3_St26random_access_iterator_tag, symObjAddr: 0x2DE8, symBinAddr: 0x10000A820, symSize: 0x28 }
  - { offset: 0x2FD3A, size: 0x8, addend: 0x0, symName: __ZSt19__iterator_categoryIPKdENSt15iterator_traitsIT_E17iterator_categoryERKS3_, symObjAddr: 0x2DD4, symBinAddr: 0x10000A80C, symSize: 0x14 }
  - { offset: 0x2FD67, size: 0x8, addend: 0x0, symName: __ZNKSt16initializer_listIdE4sizeEv, symObjAddr: 0x2DBC, symBinAddr: 0x10000A7F4, symSize: 0x18 }
  - { offset: 0x2FDB5, size: 0x8, addend: 0x0, symName: __ZNSt12_Vector_baseIdSaIdEE12_Vector_implC1ERKS0_, symObjAddr: 0x2D50, symBinAddr: 0x10000A7C4, symSize: 0x30 }
  - { offset: 0x2FDDD, size: 0x8, addend: 0x0, symName: __ZSt8_DestroyIPSt10shared_ptrI7NucleusEEvT_S4_, symObjAddr: 0x2CBC, symBinAddr: 0x10000A79C, symSize: 0x28 }
  - { offset: 0x2FE1C, size: 0x8, addend: 0x0, symName: __ZNSt16allocator_traitsISaISt10shared_ptrI7NucleusEEE10deallocateERS3_PS2_m, symObjAddr: 0x2C8C, symBinAddr: 0x10000A76C, symSize: 0x30 }
  - { offset: 0x2FE81, size: 0x8, addend: 0x0, symName: __ZN9__gnu_cxx13new_allocatorISt10shared_ptrI7NucleusEEC2Ev, symObjAddr: 0x2C78, symBinAddr: 0x10000A758, symSize: 0x14 }
  - { offset: 0x2FEA5, size: 0x8, addend: 0x0, symName: __ZNKSt19__shared_ptr_accessI8ElectronLN9__gnu_cxx12_Lock_policyE2ELb0ELb0EE6_M_getEv, symObjAddr: 0x2B10, symBinAddr: 0x10000A73C, symSize: 0x1C }
  - { offset: 0x2FECD, size: 0x8, addend: 0x0, symName: __ZNSt6vectorISt10shared_ptrI8ElectronESaIS2_EE18_M_insert_dispatchIN9__gnu_cxx17__normal_iteratorIPS2_S4_EEEEvS9_T_SA_St12__false_type, symObjAddr: 0x2AC0, symBinAddr: 0x10000A6EC, symSize: 0x50 }
  - { offset: 0x2FF36, size: 0x8, addend: 0x0, symName: __ZNK9__gnu_cxx17__normal_iteratorIPSt10shared_ptrI8ElectronESt6vectorIS3_SaIS3_EEEplEl, symObjAddr: 0x2A80, symBinAddr: 0x10000A6AC, symSize: 0x40 }
  - { offset: 0x2FF70, size: 0x8, addend: 0x0, symName: __ZN9__gnu_cxxmiIPKSt10shared_ptrI8ElectronESt6vectorIS3_SaIS3_EEEENS_17__normal_iteratorIT_T0_E15difference_typeERKSC_SF_, symObjAddr: 0x2A40, symBinAddr: 0x10000A66C, symSize: 0x40 }
  - { offset: 0x2FFBE, size: 0x8, addend: 0x0, symName: __ZNKSt6vectorISt10shared_ptrI8ElectronESaIS2_EE6cbeginEv, symObjAddr: 0x2A1C, symBinAddr: 0x10000A648, symSize: 0x24 }
  - { offset: 0x2FFE2, size: 0x8, addend: 0x0, symName: __ZN9__gnu_cxxeqIPKSt10shared_ptrI8ElectronESt6vectorIS3_SaIS3_EEEEbRKNS_17__normal_iteratorIT_T0_EESE_, symObjAddr: 0x299C, symBinAddr: 0x10000A604, symSize: 0x44 }
  - { offset: 0x30030, size: 0x8, addend: 0x0, symName: __ZNKSt6vectorISt10shared_ptrI8ElectronESaIS2_EE3endEv, symObjAddr: 0x2974, symBinAddr: 0x10000A5DC, symSize: 0x28 }
  - { offset: 0x30058, size: 0x8, addend: 0x0, symName: __ZNKSt6vectorISt10shared_ptrI8ElectronESaIS2_EE5beginEv, symObjAddr: 0x2950, symBinAddr: 0x10000A5B8, symSize: 0x24 }
  - { offset: 0x30080, size: 0x8, addend: 0x0, symName: __ZNK9__gnu_cxx17__normal_iteratorIPKdSt6vectorIdSaIdEEE4baseEv, symObjAddr: 0x2844, symBinAddr: 0x10000A5A4, symSize: 0x14 }
  - { offset: 0x300CF, size: 0x8, addend: 0x0, symName: __ZN9__gnu_cxx17__normal_iteratorIPKdSt6vectorIdSaIdEEEC1ERKS2_, symObjAddr: 0x281C, symBinAddr: 0x10000A57C, symSize: 0x28 }
  - { offset: 0x300FB, size: 0x8, addend: 0x0, symName: __ZNKSt19__shared_ptr_accessI18RadioactiveNucleusLN9__gnu_cxx12_Lock_policyE2ELb0ELb0EE6_M_getEv, symObjAddr: 0x2800, symBinAddr: 0x10000A560, symSize: 0x1C }
  - { offset: 0x3013C, size: 0x8, addend: 0x0, symName: __ZNSt10shared_ptrI18RadioactiveNucleusEC1Ev, symObjAddr: 0x27E0, symBinAddr: 0x10000A540, symSize: 0x20 }
  - { offset: 0x301A4, size: 0x8, addend: 0x0, symName: __ZNSt10shared_ptrI18RadioactiveNucleusEC1I7NucleusEERKS_IT_EPS0_, symObjAddr: 0x27B0, symBinAddr: 0x10000A510, symSize: 0x30 }
  - { offset: 0x301E1, size: 0x8, addend: 0x0, symName: __ZNKSt12__shared_ptrI7NucleusLN9__gnu_cxx12_Lock_policyE2EE3getEv, symObjAddr: 0x2798, symBinAddr: 0x10000A4F8, symSize: 0x18 }
  - { offset: 0x30209, size: 0x8, addend: 0x0, symName: __ZNKSt19__shared_ptr_accessI7NucleusLN9__gnu_cxx12_Lock_policyE2ELb0ELb0EE6_M_getEv, symObjAddr: 0x277C, symBinAddr: 0x10000A4DC, symSize: 0x1C }
  - { offset: 0x30231, size: 0x8, addend: 0x0, symName: __ZNK9__gnu_cxx17__normal_iteratorIPSt10shared_ptrI7NucleusESt6vectorIS3_SaIS3_EEE4baseEv, symObjAddr: 0x2768, symBinAddr: 0x10000A4C8, symSize: 0x14 }
  - { offset: 0x30280, size: 0x8, addend: 0x0, symName: __ZN9__gnu_cxx17__normal_iteratorIPSt10shared_ptrI7NucleusESt6vectorIS3_SaIS3_EEEC1ERKS4_, symObjAddr: 0x2740, symBinAddr: 0x10000A4A0, symSize: 0x28 }
  - { offset: 0x302DC, size: 0x8, addend: 0x0, symName: __ZNSt12__shared_ptrI7NucleusLN9__gnu_cxx12_Lock_policyE2EEC2I13StableNucleusvEEOS_IT_LS2_2EE, symObjAddr: 0x26E4, symBinAddr: 0x10000A444, symSize: 0x5C }
  - { offset: 0x30313, size: 0x8, addend: 0x0, symName: __ZSt4moveIRSt10shared_ptrI13StableNucleusEEONSt16remove_referenceIT_E4typeEOS5_, symObjAddr: 0x26D0, symBinAddr: 0x10000A430, symSize: 0x14 }
  - { offset: 0x30343, size: 0x8, addend: 0x0, symName: __ZSt15allocate_sharedI13StableNucleusSaIS0_EJRA3_KciiEESt10shared_ptrIT_ERKT0_DpOT1_, symObjAddr: 0x265C, symBinAddr: 0x10000A3BC, symSize: 0x74 }
  - { offset: 0x303D6, size: 0x8, addend: 0x0, symName: __ZNSaI13StableNucleusED1Ev, symObjAddr: 0x263C, symBinAddr: 0x10000A39C, symSize: 0x20 }
  - { offset: 0x303FE, size: 0x8, addend: 0x0, symName: __ZNSaI13StableNucleusED2Ev, symObjAddr: 0x261C, symBinAddr: 0x10000A37C, symSize: 0x20 }
  - { offset: 0x3043B, size: 0x8, addend: 0x0, symName: __ZNSaI13StableNucleusEC1Ev, symObjAddr: 0x25FC, symBinAddr: 0x10000A35C, symSize: 0x20 }
  - { offset: 0x3045F, size: 0x8, addend: 0x0, symName: __ZNSt6vectorISt10shared_ptrI7NucleusESaIS2_EE12emplace_backIJS2_EEERS2_DpOT_, symObjAddr: 0x255C, symBinAddr: 0x10000A2BC, symSize: 0xA0 }
  - { offset: 0x304A1, size: 0x8, addend: 0x0, symName: __ZSt4moveIRSt10shared_ptrI7NucleusEEONSt16remove_referenceIT_E4typeEOS5_, symObjAddr: 0x2548, symBinAddr: 0x10000A2A8, symSize: 0x14 }
  - { offset: 0x30505, size: 0x8, addend: 0x0, symName: __ZNSt12__shared_ptrI7NucleusLN9__gnu_cxx12_Lock_policyE2EEC2I18RadioactiveNucleusvEEOS_IT_LS2_2EE, symObjAddr: 0x24EC, symBinAddr: 0x10000A24C, symSize: 0x5C }
  - { offset: 0x3053C, size: 0x8, addend: 0x0, symName: __ZSt4moveIRSt10shared_ptrI18RadioactiveNucleusEEONSt16remove_referenceIT_E4typeEOS5_, symObjAddr: 0x24D8, symBinAddr: 0x10000A238, symSize: 0x14 }
  - { offset: 0x3056C, size: 0x8, addend: 0x0, symName: __ZSt15allocate_sharedI18RadioactiveNucleusSaIS0_EJRA3_KciidSt6vectorIdSaIdEEEESt10shared_ptrIT_ERKT0_DpOT1_, symObjAddr: 0x22AC, symBinAddr: 0x10000A194, symSize: 0xA4 }
  - { offset: 0x305F9, size: 0x8, addend: 0x0, symName: __ZSt7forwardISt6vectorIdSaIdEEEOT_RNSt16remove_referenceIS3_E4typeE, symObjAddr: 0x2298, symBinAddr: 0x10000A180, symSize: 0x14 }
  - { offset: 0x3062F, size: 0x8, addend: 0x0, symName: __ZSt7forwardIiEOT_RNSt16remove_referenceIS0_E4typeE, symObjAddr: 0x2270, symBinAddr: 0x10000A16C, symSize: 0x14 }
  - { offset: 0x30665, size: 0x8, addend: 0x0, symName: __ZSt7forwardIRA3_KcEOT_RNSt16remove_referenceIS3_E4typeE, symObjAddr: 0x225C, symBinAddr: 0x10000A158, symSize: 0x14 }
  - { offset: 0x306BB, size: 0x8, addend: 0x0, symName: __ZNSaI18RadioactiveNucleusED1Ev, symObjAddr: 0x223C, symBinAddr: 0x10000A138, symSize: 0x20 }
  - { offset: 0x306E3, size: 0x8, addend: 0x0, symName: __ZNSaI18RadioactiveNucleusED2Ev, symObjAddr: 0x221C, symBinAddr: 0x10000A118, symSize: 0x20 }
  - { offset: 0x30720, size: 0x8, addend: 0x0, symName: __ZNSaI18RadioactiveNucleusEC1Ev, symObjAddr: 0x21FC, symBinAddr: 0x10000A0F8, symSize: 0x20 }
  - { offset: 0x30744, size: 0x8, addend: 0x0, symName: __ZNSt6vectorIdSaIdEE19_M_range_initializeIPKdEEvT_S5_St20forward_iterator_tag, symObjAddr: 0x2104, symBinAddr: 0x10000A040, symSize: 0xB8 }
  - { offset: 0x307A9, size: 0x8, addend: 0x0, symName: __ZSt8distanceIPKdENSt15iterator_traitsIT_E15difference_typeES3_S3_, symObjAddr: 0x20C8, symBinAddr: 0x10000A004, symSize: 0x3C }
  - { offset: 0x307EC, size: 0x8, addend: 0x0, symName: __ZNKSt16initializer_listIdE3endEv, symObjAddr: 0x2090, symBinAddr: 0x100009FCC, symSize: 0x38 }
  - { offset: 0x30814, size: 0x8, addend: 0x0, symName: __ZNKSt16initializer_listIdE5beginEv, symObjAddr: 0x2078, symBinAddr: 0x100009FB4, symSize: 0x18 }
  - { offset: 0x30863, size: 0x8, addend: 0x0, symName: __ZNSt12_Vector_baseIdSaIdEEC2ERKS0_, symObjAddr: 0x2000, symBinAddr: 0x100009F8C, symSize: 0x28 }
  - { offset: 0x308A8, size: 0x8, addend: 0x0, symName: __ZN9__gnu_cxx13new_allocatorIdEC2Ev, symObjAddr: 0x1FB8, symBinAddr: 0x100009F78, symSize: 0x14 }
  - { offset: 0x308C8, size: 0x8, addend: 0x0, symName: __ZSt8_DestroyIPSt10shared_ptrI7NucleusES2_EvT_S4_RSaIT0_E, symObjAddr: 0x1EB0, symBinAddr: 0x100009F4C, symSize: 0x2C }
  - { offset: 0x3091E, size: 0x8, addend: 0x0, symName: __ZNSt12_Vector_baseISt10shared_ptrI7NucleusESaIS2_EE19_M_get_Tp_allocatorEv, symObjAddr: 0x1E9C, symBinAddr: 0x100009F38, symSize: 0x14 }
  - { offset: 0x30946, size: 0x8, addend: 0x0, symName: __ZNSt12_Vector_baseISt10shared_ptrI7NucleusESaIS2_EE13_M_deallocateEPS2_m, symObjAddr: 0x1E60, symBinAddr: 0x100009EFC, symSize: 0x3C }
  - { offset: 0x309B0, size: 0x8, addend: 0x0, symName: __ZN9__gnu_cxx13new_allocatorISt10shared_ptrI7NucleusEED2Ev, symObjAddr: 0x1E4C, symBinAddr: 0x100009EE8, symSize: 0x14 }
  - { offset: 0x309ED, size: 0x8, addend: 0x0, symName: __ZNSt12_Vector_baseISt10shared_ptrI7NucleusESaIS2_EE17_Vector_impl_dataC2Ev, symObjAddr: 0x1E20, symBinAddr: 0x100009EBC, symSize: 0x2C }
  - { offset: 0x30A2A, size: 0x8, addend: 0x0, symName: __ZNSaISt10shared_ptrI7NucleusEEC2Ev, symObjAddr: 0x1E00, symBinAddr: 0x100009E9C, symSize: 0x20 }
  - { offset: 0x30A54, size: 0x8, addend: 0x0, symName: __ZNKSt12__shared_ptrI6PhotonLN9__gnu_cxx12_Lock_policyE2EEcvbEv, symObjAddr: 0x1DB4, symBinAddr: 0x100009E78, symSize: 0x24 }
  - { offset: 0x30A7C, size: 0x8, addend: 0x0, symName: __ZNKSt19__shared_ptr_accessI8ElectronLN9__gnu_cxx12_Lock_policyE2ELb0ELb0EEptEv, symObjAddr: 0x1CE8, symBinAddr: 0x100009E5C, symSize: 0x1C }
  - { offset: 0x30AA4, size: 0x8, addend: 0x0, symName: __ZNK9__gnu_cxx17__normal_iteratorIPSt10shared_ptrI8ElectronESt6vectorIS3_SaIS3_EEEdeEv, symObjAddr: 0x1CD0, symBinAddr: 0x100009E44, symSize: 0x18 }
  - { offset: 0x30ACC, size: 0x8, addend: 0x0, symName: __ZN9__gnu_cxx17__normal_iteratorIPSt10shared_ptrI8ElectronESt6vectorIS3_SaIS3_EEEppEv, symObjAddr: 0x1CA8, symBinAddr: 0x100009E1C, symSize: 0x28 }
  - { offset: 0x30AF0, size: 0x8, addend: 0x0, symName: __ZN9__gnu_cxxneIPSt10shared_ptrI8ElectronESt6vectorIS3_SaIS3_EEEEbRKNS_17__normal_iteratorIT_T0_EESD_, symObjAddr: 0x1C64, symBinAddr: 0x100009DD8, symSize: 0x44 }
  - { offset: 0x30B3E, size: 0x8, addend: 0x0, symName: __ZNSt6vectorISt10shared_ptrI8ElectronESaIS2_EE6insertIN9__gnu_cxx17__normal_iteratorIPS2_S4_EEvEES9_NS7_IPKS2_S4_EET_SD_, symObjAddr: 0x1BD8, symBinAddr: 0x100009D4C, symSize: 0x8C }
  - { offset: 0x30BDF, size: 0x8, addend: 0x0, symName: __ZN9__gnu_cxx17__normal_iteratorIPKSt10shared_ptrI8ElectronESt6vectorIS3_SaIS3_EEEC1IPS3_EERKNS0_IT_NS_11__enable_ifIXsrSt10__are_sameISC_SB_E7__valueES8_E6__typeEEE, symObjAddr: 0x1BA8, symBinAddr: 0x100009D1C, symSize: 0x30 }
  - { offset: 0x30C14, size: 0x8, addend: 0x0, symName: __ZNKSt6vectorISt10shared_ptrI8ElectronESaIS2_EE5emptyEv, symObjAddr: 0x1B24, symBinAddr: 0x100009CE4, symSize: 0x38 }
  - { offset: 0x30C3C, size: 0x8, addend: 0x0, symName: __ZNKSt19__shared_ptr_accessI6PhotonLN9__gnu_cxx12_Lock_policyE2ELb0ELb0EEdeEv, symObjAddr: 0x1AF8, symBinAddr: 0x100009CB8, symSize: 0x2C }
  - { offset: 0x30C64, size: 0x8, addend: 0x0, symName: __ZNSt6vectorISt10shared_ptrI6PhotonESaIS2_EEixEm, symObjAddr: 0x1AB4, symBinAddr: 0x100009C90, symSize: 0x28 }
  - { offset: 0x30C9C, size: 0x8, addend: 0x0, symName: __ZNK9__gnu_cxx17__normal_iteratorIPKdSt6vectorIdSaIdEEEdeEv, symObjAddr: 0x198C, symBinAddr: 0x100009C78, symSize: 0x18 }
  - { offset: 0x30CC4, size: 0x8, addend: 0x0, symName: __ZN9__gnu_cxx17__normal_iteratorIPKdSt6vectorIdSaIdEEEppEv, symObjAddr: 0x1964, symBinAddr: 0x100009C50, symSize: 0x28 }
  - { offset: 0x30CEE, size: 0x8, addend: 0x0, symName: __ZN9__gnu_cxxneIPKdSt6vectorIdSaIdEEEEbRKNS_17__normal_iteratorIT_T0_EESB_, symObjAddr: 0x1920, symBinAddr: 0x100009C0C, symSize: 0x44 }
  - { offset: 0x30D3C, size: 0x8, addend: 0x0, symName: __ZNKSt6vectorIdSaIdEE3endEv, symObjAddr: 0x18F8, symBinAddr: 0x100009BE4, symSize: 0x28 }
  - { offset: 0x30D64, size: 0x8, addend: 0x0, symName: __ZNKSt6vectorIdSaIdEE5beginEv, symObjAddr: 0x18D4, symBinAddr: 0x100009BC0, symSize: 0x24 }
  - { offset: 0x30D8C, size: 0x8, addend: 0x0, symName: __ZNKSt19__shared_ptr_accessI18RadioactiveNucleusLN9__gnu_cxx12_Lock_policyE2ELb0ELb0EEptEv, symObjAddr: 0x18B8, symBinAddr: 0x100009BA4, symSize: 0x1C }
  - { offset: 0x30DB4, size: 0x8, addend: 0x0, symName: __ZNKSt12__shared_ptrI18RadioactiveNucleusLN9__gnu_cxx12_Lock_policyE2EEcvbEv, symObjAddr: 0x1894, symBinAddr: 0x100009B80, symSize: 0x24 }
  - { offset: 0x30DD8, size: 0x8, addend: 0x0, symName: __ZSt20dynamic_pointer_castI18RadioactiveNucleus7NucleusESt10shared_ptrIT_ERKS2_IT0_E, symObjAddr: 0x1814, symBinAddr: 0x100009B00, symSize: 0x80 }
  - { offset: 0x30E39, size: 0x8, addend: 0x0, symName: __ZNKSt19__shared_ptr_accessI7NucleusLN9__gnu_cxx12_Lock_policyE2ELb0ELb0EEptEv, symObjAddr: 0x17F8, symBinAddr: 0x100009AE4, symSize: 0x1C }
  - { offset: 0x30E61, size: 0x8, addend: 0x0, symName: __ZNK9__gnu_cxx17__normal_iteratorIPSt10shared_ptrI7NucleusESt6vectorIS3_SaIS3_EEEdeEv, symObjAddr: 0x17E0, symBinAddr: 0x100009ACC, symSize: 0x18 }
  - { offset: 0x30E89, size: 0x8, addend: 0x0, symName: __ZN9__gnu_cxx17__normal_iteratorIPSt10shared_ptrI7NucleusESt6vectorIS3_SaIS3_EEEppEv, symObjAddr: 0x17B8, symBinAddr: 0x100009AA4, symSize: 0x28 }
  - { offset: 0x30EAD, size: 0x8, addend: 0x0, symName: __ZN9__gnu_cxxneIPSt10shared_ptrI7NucleusESt6vectorIS3_SaIS3_EEEEbRKNS_17__normal_iteratorIT_T0_EESD_, symObjAddr: 0x1774, symBinAddr: 0x100009A60, symSize: 0x44 }
  - { offset: 0x30EFB, size: 0x8, addend: 0x0, symName: __ZNSt6vectorISt10shared_ptrI7NucleusESaIS2_EE3endEv, symObjAddr: 0x174C, symBinAddr: 0x100009A38, symSize: 0x28 }
  - { offset: 0x30F23, size: 0x8, addend: 0x0, symName: __ZNSt6vectorISt10shared_ptrI7NucleusESaIS2_EE5beginEv, symObjAddr: 0x1728, symBinAddr: 0x100009A14, symSize: 0x24 }
  - { offset: 0x30F7B, size: 0x8, addend: 0x0, symName: __ZNSt10shared_ptrI7NucleusEC1I13StableNucleusvEEOS_IT_E, symObjAddr: 0x16EC, symBinAddr: 0x1000099D8, symSize: 0x3C }
  - { offset: 0x30FAC, size: 0x8, addend: 0x0, symName: __ZSt11make_sharedI13StableNucleusJRA3_KciiEESt10shared_ptrIT_EDpOT0_, symObjAddr: 0x1650, symBinAddr: 0x10000993C, symSize: 0x9C }
  - { offset: 0x31004, size: 0x8, addend: 0x0, symName: __ZNSt6vectorISt10shared_ptrI7NucleusESaIS2_EE9push_backEOS2_, symObjAddr: 0x1620, symBinAddr: 0x10000990C, symSize: 0x30 }
  - { offset: 0x3106C, size: 0x8, addend: 0x0, symName: __ZNSt10shared_ptrI7NucleusEC1I18RadioactiveNucleusvEEOS_IT_E, symObjAddr: 0x15E4, symBinAddr: 0x1000098D0, symSize: 0x3C }
  - { offset: 0x3109D, size: 0x8, addend: 0x0, symName: __ZSt11make_sharedI18RadioactiveNucleusJRA3_KciidSt6vectorIdSaIdEEEESt10shared_ptrIT_EDpOT0_, symObjAddr: 0x14E4, symBinAddr: 0x100009804, symSize: 0xCC }
  - { offset: 0x31144, size: 0x8, addend: 0x0, symName: __ZNSt6vectorIdSaIdEEC1ESt16initializer_listIdERKS0_, symObjAddr: 0x1424, symBinAddr: 0x100009794, symSize: 0x70 }
  - { offset: 0x3119A, size: 0x8, addend: 0x0, symName: __ZNSaIdED1Ev, symObjAddr: 0x1404, symBinAddr: 0x100009774, symSize: 0x20 }
  - { offset: 0x311D7, size: 0x8, addend: 0x0, symName: __ZNSaIdEC1Ev, symObjAddr: 0x13C4, symBinAddr: 0x100009754, symSize: 0x20 }
  - { offset: 0x3121D, size: 0x8, addend: 0x0, symName: __ZNSt6vectorISt10shared_ptrI7NucleusESaIS2_EED1Ev, symObjAddr: 0x128C, symBinAddr: 0x100009704, symSize: 0x50 }
  - { offset: 0x31263, size: 0x8, addend: 0x0, symName: __ZNSt12_Vector_baseISt10shared_ptrI7NucleusESaIS2_EED2Ev, symObjAddr: 0x123C, symBinAddr: 0x1000096B4, symSize: 0x50 }
  - { offset: 0x312A9, size: 0x8, addend: 0x0, symName: __ZNSaISt10shared_ptrI7NucleusEED2Ev, symObjAddr: 0x121C, symBinAddr: 0x100009694, symSize: 0x20 }
  - { offset: 0x312E6, size: 0x8, addend: 0x0, symName: __ZNSt12_Vector_baseISt10shared_ptrI7NucleusESaIS2_EE12_Vector_implC1Ev, symObjAddr: 0x11F4, symBinAddr: 0x10000966C, symSize: 0x28 }
  - { offset: 0x3132E, size: 0x8, addend: 0x0, symName: __ZNSt7__cxx1112basic_stringIcSt11char_traitsIcESaIcEE12_Alloc_hiderD1Ev, symObjAddr: 0x11D4, symBinAddr: 0x10000964C, symSize: 0x20 }
  - { offset: 0x3134E, size: 0x8, addend: 0x0, symName: __ZN9__gnu_cxx11char_traitsIcE6lengthEPKc, symObjAddr: 0x1180, symBinAddr: 0x1000095F8, symSize: 0x54 }
  - { offset: 0x31385, size: 0x8, addend: 0x0, symName: __ZN9__gnu_cxx11char_traitsIcE2eqERKcS3_, symObjAddr: 0x1150, symBinAddr: 0x1000095C8, symSize: 0x30 }
  - { offset: 0x313C3, size: 0x8, addend: 0x0, symName: _main, symObjAddr: 0x3C8, symBinAddr: 0x100008840, symSize: 0xD88 }
  - { offset: 0x316AB, size: 0x8, addend: 0x0, symName: __ZNSt10shared_ptrI13StableNucleusED1Ev, symObjAddr: 0x294, symBinAddr: 0x100008820, symSize: 0x20 }
  - { offset: 0x316F1, size: 0x8, addend: 0x0, symName: __ZNSt12__shared_ptrI13StableNucleusLN9__gnu_cxx12_Lock_policyE2EED2Ev, symObjAddr: 0x270, symBinAddr: 0x1000087FC, symSize: 0x24 }
  - { offset: 0x31739, size: 0x8, addend: 0x0, symName: __ZNSt10shared_ptrI7NucleusED1Ev, symObjAddr: 0x250, symBinAddr: 0x1000087DC, symSize: 0x20 }
  - { offset: 0x3177F, size: 0x8, addend: 0x0, symName: __ZNSt12__shared_ptrI7NucleusLN9__gnu_cxx12_Lock_policyE2EED2Ev, symObjAddr: 0x22C, symBinAddr: 0x1000087B8, symSize: 0x24 }
  - { offset: 0x317C7, size: 0x8, addend: 0x0, symName: __ZNSt10shared_ptrI18RadioactiveNucleusED1Ev, symObjAddr: 0x20C, symBinAddr: 0x100008798, symSize: 0x20 }
  - { offset: 0x3180D, size: 0x8, addend: 0x0, symName: __ZNSt12__shared_ptrI18RadioactiveNucleusLN9__gnu_cxx12_Lock_policyE2EED2Ev, symObjAddr: 0x1E8, symBinAddr: 0x100008774, symSize: 0x24 }
  - { offset: 0x3184A, size: 0x8, addend: 0x0, symName: __ZNSt6vectorISt10shared_ptrI7NucleusESaIS2_EEC1Ev, symObjAddr: 0x168, symBinAddr: 0x100008754, symSize: 0x20 }
  - { offset: 0x31887, size: 0x8, addend: 0x0, symName: __ZNSt12_Vector_baseISt10shared_ptrI7NucleusESaIS2_EEC2Ev, symObjAddr: 0x148, symBinAddr: 0x100008734, symSize: 0x20 }
  - { offset: 0x318CF, size: 0x8, addend: 0x0, symName: __ZNSt12_Vector_baseISt10shared_ptrI7NucleusESaIS2_EE12_Vector_implD1Ev, symObjAddr: 0x128, symBinAddr: 0x100008714, symSize: 0x20 }
  - { offset: 0x318F3, size: 0x8, addend: 0x0, symName: __ZNK18RadioactiveNucleus16getDecayEnergiesEv, symObjAddr: 0x110, symBinAddr: 0x1000086FC, symSize: 0x18 }
  - { offset: 0x3191B, size: 0x8, addend: 0x0, symName: __ZNK18RadioactiveNucleus11getHalfLifeEv, symObjAddr: 0xF8, symBinAddr: 0x1000086E4, symSize: 0x18 }
  - { offset: 0x31948, size: 0x8, addend: 0x0, symName: __ZL18__gthread_active_pv, symObjAddr: 0xE4, symBinAddr: 0x1000086DC, symSize: 0x8 }
  - { offset: 0x3195F, size: 0x8, addend: 0x0, symName: __ZNSt11char_traitsIcE6lengthEPKc, symObjAddr: 0xA4, symBinAddr: 0x10000869C, symSize: 0x40 }
...
